(dp0
I1486880768
(lp1
S'cef7405f-2fb8-496f-a35d-5525af860ead'
p2
asI1486869502
(lp3
S'f6d8c012-5f49-41f3-a037-a6aacf402c10'
p4
asI1486868488
(lp5
S'6397d52e-11b2-447d-8c55-021dea636b65'
p6
asI1486870537
(lp7
S'b82c2f37-d633-46bb-bf0b-3520f1aada0c'
p8
asI1486923790
(lp9
S'900b4357-9493-4af6-9fa9-fcbea4825632'
p10
asI1486938530
(lp11
S'3da46963-6683-4807-8964-a6cd7fd75f7b'
p12
asI1486936082
(lp13
S'c8f5a763-141e-4149-a89d-29b4b6612f42'
p14
asI1486936083
(lp15
S'548e7269-1a17-404f-9b67-8a7a78e581d2'
p16
asI1486897681
(lp17
S'fdfcd46c-9674-4305-98af-a9e9f191cbc4'
p18
asI1486882837
(lp19
S'18dc9c31-39e9-4680-84a4-85a6c969d713'
p20
asI1486944280
(lp21
S'517b21de-76ad-4411-b89a-36a225c0bcc3'
p22
asI1486866457
(lp23
S'e767785d-f28f-4047-be88-ea50cddd79f9'
p24
asI1486866243
(lp25
S'a933d069-2e8f-43de-939f-10191c7e2781'
p26
asI1486914223
(lp27
S'a39b6321-3aa9-4dec-ab78-896c326baf89'
p28
asI1486886944
(lp29
S'3b212e50-2648-4771-9355-09a78ec42c46'
p30
asI1486940194
(lp31
S'5139dd19-95d5-42d4-b22b-f2a32713ac5f'
p32
asI1486939483
(lp33
S'9be39135-236d-45e9-a458-bc79fcbc62e2'
p34
asI1486925860
(lp35
S'4e28edd3-7fe7-45d3-b9c5-73b94807d0b5'
p36
asI1486925862
(lp37
S'54f2ebf7-3cbd-4b8c-91ae-b9c147d089be'
p38
asI1486882481
(lp39
S'19caa3a8-63ec-4a46-9791-6bbcb491fa6b'
p40
asI1486938153
(lp41
S'0a8d4e81-ab19-4e18-b393-157d6bcf2df6'
p42
asI1486891050
(lp43
S'5c3308de-8a16-49c1-818f-614731dd8126'
p44
asI1486921394
(lp45
S'25d42d27-b83c-488a-8c76-9f84ecadb1c6'
p46
asI1486929245
(lp47
S'90f508d4-f170-4c6d-a24e-b3b164d11647'
p48
asI1486893522
(lp49
S'bdb0bb5d-6cd6-4dce-a31b-dc7559e98053'
p50
asI1486905836
(lp51
S'c79f08ed-b091-467b-85f1-41654769d459'
p52
asI1486942260
(lp53
S'0be36018-bced-4dd4-a18c-a5b59f684292'
p54
asI1486862389
(lp55
S'9738ebbe-8817-4ffd-830c-3ef13f9825e5'
p56
asI1486866441
(lp57
S'333334ec-a141-4195-a3c8-5f79a0299044'
p58
asI1486921784
(lp59
S'ad760106-2520-4e27-a72e-0b72848f8f4a'
p60
asI1486910132
(lp61
S'185a22d7-6e33-4150-8ce5-dbba88cc4eb9'
p62
asI1486877019
(lp63
S'bf942755-18b4-41ec-a8c5-429a4d568e75'
p64
asI1486936125
(lp65
S'c9fdb3af-afb4-4660-8b18-4cfd50f74c04'
p66
asI1486866101
(lp67
S'fba83459-3059-4823-8b4d-cbfe07c2f5bf'
p68
asI1486913600
(lp69
S'1196dfa1-1f3f-4f2f-822a-873095925b96'
p70
asI1486903363
(lp71
S'ffac9139-f52b-485e-b175-38fd0f9f5936'
p72
asI1486886980
(lp73
S'f88c1496-5c34-4c28-8ac2-97ca338a273a'
p74
asI1486860357
(lp75
S'b172a017-22c1-4a63-a211-30f7e7866c6d'
p76
asI1486866503
(lp77
S'c6523398-8628-4203-9979-9e22062eb443'
p78
asI1486864457
(lp79
S'706d4b6b-a504-4752-b3a6-2a3adac336c6'
p80
asI1486863244
(lp81
S'6c9809ea-d913-4046-a2b9-e963ac856dd3'
p82
asI1486886987
(lp83
S'ae88add6-440d-431d-9d4b-a460e13fcc77'
p84
asI1486903372
(lp85
S'417c5af5-2cef-4d62-8b42-f97ff42a0ea5'
p86
asI1486873086
(lp87
S'2bfa80b5-19fe-4773-84b7-86759d0fdcae'
p88
asI1486917677
(lp89
S'9cbb0562-a119-4d33-b239-2d1f947b6930'
p90
asI1486872662
(lp91
S'f78960ba-a090-4a97-9cae-bc5bacabacb3'
p92
asI1486860376
(lp93
S'cecbf134-cfcf-421e-a427-d3cb452a01b9'
p94
asI1486909796
(lp95
S'3547af96-98cf-43c3-8ecc-42238e021424'
p96
asI1486905434
(lp97
S'08e19f7a-2804-46b2-8f48-f08bb7bebd56'
p98
asI1486874715
(lp99
S'909e3c36-18df-4b05-b28e-4ddcc117494a'
p100
asI1486915676
(lp101
S'6e490311-8893-4f76-88bc-1f3cd523051f'
p102
asI1486886022
(lp103
S'a5868d1d-42e9-42be-97d9-012fc97dcfcf'
p104
asI1486909536
(lp105
S'8b8700d2-9e81-491b-aabd-70f55a243fba'
p106
asI1486913633
(lp107
S'16798c2b-1576-43bc-bb79-326a70cc624a'
p108
asI1486901346
(lp109
S'1110bfce-485e-4057-b82f-42c1389c6e61'
p110
asI1486902971
(lp111
S'aadf8499-ec10-45c7-9c4e-0eec9082e025'
p112
asI1486932069
(lp113
S'f952cd5e-8140-4cdf-bc98-6d46e0fd5a3f'
p114
asI1486903399
(lp115
S'7468186c-e3fc-4eaf-a86b-ba10d6887253'
p116
asI1486876778
(lp117
S'2eb9ccea-30f0-4565-9a60-1af56734db12'
p118
asI1486925933
(lp119
S'85fb21be-9b20-474c-aa01-846d14e33e7c'
p120
asI1486874738
(lp121
S'ecc16ba8-cef5-49fa-b09f-a4dce922dd05'
p122
asI1486944275
(lp123
S'6c65a13a-46e5-4b7f-8592-226ec974056a'
p124
asI1486870644
(lp125
S'92aefff5-fad9-44bc-9b64-b321dd344852'
p126
asI1486897269
(lp127
S'5b1cd861-b361-4054-abee-1f8622c12fbd'
p128
asI1486923894
(lp129
S'9c098245-0b22-4d02-8613-95fbd8d0ccf5'
p130
asI1486897273
(lp131
S'1ac8730b-6005-48e9-9f14-80ef64f15c83'
p132
asI1486897274
(lp133
S'a00dc3cb-7256-4787-94d6-77d5e9adb530'
p134
asI1486917756
(lp135
S'72170aba-0ff8-4cf2-9c66-797126f73023'
p136
asI1486866562
(lp137
S'3c57a2c4-7492-4053-bdf0-973fb81ed364'
p138
asI1486862469
(lp139
S'65445715-7b79-46f3-ac7d-015bbde33025'
p140
asI1486868614
(lp141
S'0c396cf0-0487-49ba-9188-b009f8fb3294'
p142
asI1486940295
(lp143
S'93ec7501-93b1-4677-8cd6-2e7cbad73afa'
p144
asI1486874762
(lp145
S'76dd925e-1f53-4410-a87e-5dc0a37e16ce'
p146
asI1486866571
(lp147
S'ff6e6554-d74d-4709-8414-c31d7d0997de'
p148
asI1486864524
(lp149
S'1cfda933-b30e-45e1-9959-3a78c3f258e0'
p150
asI1486925967
(lp151
S'f2765994-3a64-42fa-93b6-a43740fd3718'
p152
asI1486862428
(lp153
S'c40b858c-55eb-4d3b-81e8-5b5ba077356d'
p154
asI1486938257
(lp155
S'5ac8c456-8ee0-49c1-9859-43d46a68edaf'
p156
asI1486885012
(lp157
S'70247948-ce56-4748-a7d2-4c4fcba04135'
p158
asI1486887062
(lp159
S'c940e23b-735c-4c2c-b96d-2edc042c4b37'
p160
asI1486901401
(lp161
S'36dd50c1-c001-408c-b89a-aa5e80786121'
p162
asI1486923668
(lp163
S'e190945c-3d94-4ea1-84dc-2114220564fb'
p164
asI1486901615
(lp165
S'a91f40b2-a516-4fd7-b705-243dc2a3e21c'
p166
asI1486893214
(lp167
S'ec99b68f-0bf8-437e-8116-e1177ac83b94'
p168
asI1486913695
(lp169
S'bb2e0688-c1a7-4bed-97b7-328eb7d64760'
p170
asI1486878882
(lp171
S'64ee8c06-b6ec-4247-974e-fe2d7dd852d6'
p172
asI1486936227
(lp173
S'd2a72266-f769-4bbe-9349-6a2653beda0e'
p174
asI1486862501
(lp175
S'f86cd5da-d7b4-43e1-a175-b76110b20db8'
p176
asI1486909606
(lp177
S'ba042ec7-33b7-4bd8-950b-675e1bfe40e9'
p178
asI1486903464
(lp179
S'c14d3234-3984-4fdd-8cfb-0c61f531479f'
p180
asI1486934185
(lp181
S'c272d744-c30a-4996-be8d-b20f584c2155'
p182
asI1486911658
(lp183
S'80c76d65-59e2-4cea-8ff9-09ffb68d1d95'
p184
asI1486941299
(lp185
S'2ef90339-28c5-4406-b7e2-b6bccc2a6f66'
p186
asI1486870476
(lp187
S'517e4b4e-55a2-4faf-bbb7-77b9f4276c83'
p188
asI1486930095
(lp189
S'3350788a-78b8-4d5c-ba82-3b85288f0e99'
p190
asI1486905520
(lp191
S'd6615e9e-f36e-41a8-84e3-b89a95965bbf'
p192
asI1486889137
(lp193
S'323b871a-c875-4d3b-b35f-f9773a71b0af'
p194
asI1486878900
(lp195
S'2d047c29-4886-49e0-a516-d5962c770ef1'
p196
asI1486928053
(lp197
S'5df68203-8553-4fa0-b458-09d942570827'
p198
asI1486870713
(lp199
S'78673074-5600-43eb-b499-6c3a2c6b778c'
p200
asI1486891196
(lp201
S'56f56107-37b9-4e13-ba32-33341e1a2a55'
p202
asI1486938301
(lp203
S'df0048c4-cf62-4a1b-be0d-63077241f5f2'
p204
asI1486876862
(lp205
S'52541f2a-56d1-45e2-946d-03b3f3a111f1'
p206
asI1486944450
(lp207
S'6942acbd-275c-4c49-83c4-f8e5f5a502ec'
p208
asI1486913731
(lp209
S'a0459b70-b892-44ad-9198-412d4476f9a0'
p210
asI1486879037
(lp211
S'5cf00dcf-5674-4df7-86e9-8bfc4d58dc6e'
p212
aS'2387eb61-cc95-4f41-911a-685c50aa9428'
p213
asI1486940361
(lp214
S'240b7219-513b-46c4-ad76-ecfc329eb1bd'
p215
asI1486919882
(lp216
S'be0c5dbf-35ff-4fb3-a062-163f852f6b7a'
p217
asI1486905552
(lp218
S'eaf197d8-6ebe-43af-be08-f177f78d683c'
p219
asI1486943267
(lp220
S'54a332d1-61f2-4875-9d20-499100df43bc'
p221
asI1486868692
(lp222
S'792d3413-f43c-4916-b824-d223ff51c46b'
p223
asI1486903509
(lp224
S'893a09f1-f0cd-489c-9cad-2bd4a11726d7'
p225
asI1486880983
(lp226
S'98e989db-6279-4e08-b0d5-8ea31351d33f'
p227
asI1486868568
(lp228
S'012041a0-95e5-4f88-9ed2-97750f855faf'
p229
asI1486889178
(lp230
S'9f497049-ba2b-4ebf-934b-9a83d294c894'
p231
asI1486928092
(lp232
S'cfffc6fc-86f3-461a-9ce5-bef998cd94d6'
p233
asI1486880122
(lp234
S'55011e24-998a-4f4d-a0bc-3ca77df9605b'
p235
asI1486902666
(lp236
S'46361e9c-dc5d-4db3-820f-71cc4a860cd1'
p237
asI1486893279
(lp238
S'59dd51cf-7ef4-4b6b-a430-33b687eef4aa'
p239
asI1486883040
(lp240
S'486d4d8a-c942-4ec6-bc6d-131295a3fffa'
p241
asI1486872804
(lp242
S'1184725c-871e-4dab-9b32-f88945a321f8'
p243
asI1486880997
(lp244
S'36436ea6-d1a5-4ea7-8d6a-7c44ffb76ffc'
p245
asI1486874858
(lp246
S'408851d8-870b-46e5-9101-e81d40562e96'
p247
asI1486874663
(lp248
S'75af2b11-3e10-41a7-9776-4ae39202fc41'
p249
asI1486921968
(lp250
S'7c0ac4bf-eacd-4fa9-9a68-7565f4d70970'
p251
asI1486870773
(lp252
S'f0115820-c1ad-4928-82f2-cc61cb27f8c0'
p253
asI1486870774
(lp254
S'e392baf2-b503-4496-96b5-12fa2e03687d'
p255
asI1486889207
(lp256
S'c40bcf02-8af5-4a11-a961-d2af511840eb'
p257
asI1486888073
(lp258
S'e5e73ca1-f26d-4ae9-b0cd-bbb12b888351'
p259
asI1486932217
(lp260
S'f30c8ecd-7c2d-429d-96aa-9d84d9ba2f9d'
p261
asI1486870778
(lp262
S'193ff09c-fd14-4989-9a29-f33a41ee6498'
p263
asI1486944509
(lp264
S'12cd3b19-6e10-4af6-8f49-2100057d0df4'
p265
asI1486862590
(lp266
S'1aea1d94-c153-4ed5-9f2b-fa99967b1c5e'
p267
asI1486870784
(lp268
S'75a56c7e-4c94-4017-a33b-e3837505c0de'
p269
asI1486928256
(lp270
S'5e41a2bf-540a-421f-9403-9616c530beae'
p271
asI1486895362
(lp272
S'c39a6503-9b7e-4f0c-9a67-123dd6c6d5fa'
p273
asI1486878979
(lp274
S'72ba9e88-7742-4597-9091-4d2613141cdc'
p275
asI1486878982
(lp276
S'81b62253-c3c6-4cf6-bd72-acccd4cfbf4b'
p277
asI1486919945
(lp278
S'934f36d0-9223-469a-b18d-4d1ce631242e'
p279
asI1486905610
(lp280
S'6c5f988f-4743-4f87-9288-99b217a4fb31'
p281
asI1486878987
(lp282
S'1b89996d-fa80-4eb5-9704-2cb682d7cc83'
p283
asI1486905613
(lp284
S'4dff919f-dec2-496d-8265-f85c94d685f0'
p285
asI1486896173
(lp286
S'7f093028-9e02-4821-841c-5e87e59b9824'
p287
asI1486913808
(lp288
S'40b40c52-a884-4beb-a7bb-e703dd0ec572'
p289
asI1486923480
(lp290
S'7d83ec4e-9cf1-4bb4-b1a4-1f97e902c0d5'
p291
asI1486932242
(lp292
S'ee6c897f-ba55-4e24-8d08-bbb113d4e28a'
p293
asI1486907668
(lp294
S'8e7da83a-3460-4458-a2eb-b3e57ab28313'
p295
asI1486919444
(lp296
S'000959ac-107b-4d30-b526-fda8876d008e'
p297
asI1486883095
(lp298
S'c078332c-8297-4fdf-94e2-9258aa7c96aa'
p299
asI1486907672
(lp300
S'76c5ee12-b477-4b25-bf88-4cec6ce8ba2b'
p301
asI1486889242
(lp302
S'f1b9791b-b6a0-4b97-8d87-f9fd1e48154f'
p303
asI1486882863
(lp304
S'dbe74a0e-b04b-4e0a-8571-a11e8a9955d3'
p305
asI1486870812
(lp306
S'9a4d43ee-f1f8-4d63-be23-f99518055e92'
p307
asI1486899485
(lp308
S'6f0b0804-3b6d-42ec-962b-131c9ac5ec90'
p309
asI1486879007
(lp310
S'31211349-541c-4ca9-940a-9a2913017095'
p311
asI1486870817
(lp312
S'29b1d5cb-5e2d-47d2-9d2f-4bd644127fa1'
p313
asI1486874917
(lp314
S'25465df8-3625-4c84-9baa-fdcc5d3b4124'
p315
asI1486868774
(lp316
S'8050918c-9193-4b47-81df-9001cf658401'
p317
asI1486936363
(lp318
S'b0d57182-5c90-49fd-97c5-703273ffd2dd'
p319
asI1486909740
(lp320
S'b36c032a-bd1c-4613-9bed-1522813b654a'
p321
asI1486893357
(lp322
S'bd4c72e7-3e41-496b-9b57-46d8d80e5765'
p323
asI1486940463
(lp324
S'311d7059-e838-4562-bdd1-7af39fc6003c'
p325
asI1486895408
(lp326
S'17a931de-24f6-49f1-bfb6-c7089c9fca9a'
p327
asI1486895411
(lp328
S'08d31b64-f33f-4ca1-a6a6-70e9fdc92ffd'
p329
asI1486921837
(lp330
S'0a1892cf-b8cd-4c52-8830-6ed6a933aa5e'
p331
asI1486940277
(lp332
S'b2524b24-c7be-43ff-a27d-1756657af99c'
p333
asI1486940475
(lp334
S'c01a472a-d663-4d52-b520-ead43d713de1'
p335
asI1486881084
(lp336
S'65372e40-714d-4ba2-a10a-6511142cbf63'
p337
aS'00c517fc-e2b4-4c98-bc76-c9ea66716cb8'
p338
asI1486941578
(lp339
S'ae10b170-a327-463d-882f-55408fb47d62'
p340
asI1486899797
(lp341
S'9d07ec37-dfc3-400b-a598-e077722e1051'
p342
asI1486938131
(lp343
S'b625a41e-47f8-466c-9961-018576792648'
p344
asI1486897474
(lp345
S'73be7ab4-28c8-4350-864b-f4a0b1afa61e'
p346
asI1486917955
(lp347
S'aa7cf4e9-5fba-49ad-884f-3da1ec79ac8d'
p348
asI1486900719
(lp349
S'd617d04f-92f7-4dc5-8197-8d2a16b084bd'
p350
asI1486866761
(lp351
S'64ce550a-23de-4576-b225-071b5734f54a'
p352
asI1486906275
(lp353
S'51681730-37c8-4c39-8a1d-6c9d6bf663c7'
p354
asI1486870859
(lp355
S'704860e2-7244-4426-b698-296c2d8a59f6'
p356
aS'3ad93bf5-de57-4f25-a81a-38a1e436c51b'
p357
asI1486936397
(lp358
S'd540af28-caff-441f-a86b-bddeec203c5a'
p359
asI1486893313
(lp360
S'48145177-b7e8-468a-ba13-03c95386cd78'
p361
asI1486868815
(lp362
S'3cbab357-4d3a-470d-b42f-343aeac30209'
p363
asI1486895444
(lp364
S'34b9e9bd-26b2-4ec3-a8fe-8dddedc07264'
p365
asI1486883158
(lp366
S'f4350c7f-65cf-4864-9eb7-2e14d83f3af0'
p367
asI1486868825
(lp368
S'dc03ac49-c990-4127-827f-a9b3ba893c21'
p369
asI1486924123
(lp370
S'5aa323ea-490f-4950-bfd6-bf3e9ccc81e1'
p371
asI1486907742
(lp372
S'6ce39e76-6ea9-4c11-85cd-90363635e9dd'
p373
asI1486936415
(lp374
S'bb0ea68a-b3c1-42d1-ae24-35ffd6d9d687'
p375
asI1486909792
(lp376
S'49e0b114-32a9-4a5b-b9a6-67914564d052'
p377
asI1486897508
(lp378
S'cd96b92f-9319-4c86-b805-8ec12c4d502f'
p379
asI1486911850
(lp380
S'e13eb691-e914-4ffc-b4d3-0f6dea808451'
p381
asI1486868844
(lp382
S'52db1cd0-edd3-4b3c-8595-7893c664c69d'
p383
asI1486926190
(lp384
S'569b9f4e-1084-417b-b88a-f73a259be989'
p385
asI1486944623
(lp386
S'3d3748c7-ac74-4c34-a856-d5fb721b25cd'
p387
asI1486934385
(lp388
S'8f7d2954-70d6-4d5c-9010-18fe6f05ca8f'
p389
asI1486866806
(lp390
S'b37a5051-20c8-435a-85bc-603a8e9d9fff'
p391
asI1486883561
(lp392
S'7b9f2e73-b471-4ee5-a4d8-f0c8bbae03cd'
p393
asI1486875002
(lp394
S'66a71975-0119-4eb2-b5fe-02b905e84681'
p395
aS'3b177a10-5731-4b19-acff-0ea2d3a3c762'
p396
asI1486938496
(lp397
S'9a75e90a-223b-46f6-a939-0bf080d900a1'
p398
asI1486864771
(lp399
S'725b40b6-577f-4b11-b058-c83af9742fac'
p400
asI1486942597
(lp401
S'3fb14ed1-bc84-44dd-957f-db0aa6dca478'
p402
asI1486903686
(lp403
S'7f4a527c-e3d8-49fa-b6f1-e14891a32473'
p404
asI1486931737
(lp405
S'ba2513bc-ff42-406c-aed0-ca8ef0599e8e'
p406
asI1486940553
(lp407
S'8d94ed41-0992-4f44-8b06-93c949c641ad'
p408
asI1486868874
(lp409
S'fc9e8f75-8d7b-45b7-b608-28ba3f2b71ed'
p410
asI1486940555
(lp411
S'ec150cb5-d385-432b-833b-bb38ebe40c64'
p412
asI1486863426
(lp413
S'ea9cacca-a063-445f-81f5-f168cc958959'
p414
asI1486875023
(lp415
S'f6ff914e-e4d5-4c64-8c8f-284522f5d97d'
p416
asI1486920080
(lp417
S'739b495b-71c9-439b-8609-b2a200317214'
p418
asI1486863769
(lp419
S'8f65611d-740f-4ee1-81e1-a3ec68fdf1b8'
p420
asI1486915652
(lp421
S'9721dbd1-86eb-4665-8aef-c008218ae281'
p422
asI1486907805
(lp423
S'441b2d0c-4626-4c74-8b8c-593486d7040c'
p424
asI1486913950
(lp425
S'd51b1196-6e5a-4ec9-af9c-2758212afd0a'
p426
asI1486935109
(lp427
S'230c2d2e-3ccf-404e-9b4f-691c36b5df0d'
p428
asI1486913952
(lp429
S'92dbefd3-154e-42bc-b563-930e60352cb2'
p430
asI1486901665
(lp431
S'34378389-0e6f-479f-a3f5-e65fc0e26dcd'
p432
asI1486909858
(lp433
S'a82296d9-53f8-40d8-aaf1-860230fff1a5'
p434
asI1486870948
(lp435
S'ba2b3854-369c-45ce-9ccb-54bd5b60e5d4'
p436
asI1486907814
(lp437
S'a076c989-75b7-4fe7-9dbb-e6c6c4cd5ac9'
p438
asI1486901673
(lp439
S'b58c5ac0-421a-41d6-bb75-94991fbc022b'
p440
asI1486940587
(lp441
S'595260c6-24a2-4d4f-9ae0-53ce50d868a5'
p442
asI1486870961
(lp443
S'd8bc23f9-438a-415a-9aff-461f27d4fa7c'
p444
asI1486924210
(lp445
S'0f9d95ef-2541-4f88-b2e7-703051adf744'
p446
asI1486860723
(lp447
S'1b480156-aa7c-431f-b8c2-a41648d3911e'
p448
asI1486916021
(lp449
S'909fa749-f39d-4958-8c3d-1675df06d4f1'
p450
asI1486858678
(lp451
S'0a285939-4c33-4057-ad7a-c21bfb9e4d57'
p452
asI1486870968
(lp453
S'dc078815-f780-4783-8919-410a3c04634d'
p454
asI1486883572
(lp455
S'7893ba36-17c2-41bd-a2b3-06f1ba192adf'
p456
asI1486920122
(lp457
S'ce2d1cc9-1217-488b-a447-52c63d6e67e4'
p458
asI1486920125
(lp459
S'5898db31-49a2-4af2-b322-b3863af5aace'
p460
asI1486881214
(lp461
S'39c8bd41-d28f-4c2a-95c3-ce63024652a6'
p462
asI1486888695
(lp463
S'61e95341-d47a-404e-a078-c67b6b46e7a7'
p464
asI1486876747
(lp465
S'67c6e817-4f39-44a6-b60b-4b1f8d9e4e9b'
p466
asI1486872993
(lp467
S'eeee8cc0-2512-40b5-b2f5-3ed596d78171'
p468
asI1486903752
(lp469
S'83ba304d-f213-49c3-9a10-f6bf4e8a693d'
p470
asI1486885321
(lp471
S'39406708-7f25-4418-9fd1-b18d41b2a66e'
p472
asI1486920139
(lp473
S'0d3dbdff-d90f-48e2-a8da-379e1dc75533'
p474
asI1486891468
(lp475
S'61df4bfc-edde-4364-809d-c8eb9abb51e5'
p476
asI1486907853
(lp477
S'10b0a636-c9b5-48ed-8a0e-92494af6c48e'
p478
asI1486862799
(lp479
S'f90edb79-d8e8-485b-8c83-f59818489953'
p480
asI1486858705
(lp481
S'efd4d3e9-b964-491e-acd8-09d9f4b4b2b1'
p482
asI1486914002
(lp483
S'91e3c17f-1aed-42d4-894d-efa2315ca0c4'
p484
asI1486916052
(lp485
S'd6219ba9-f776-47aa-a3ff-63d2fc4019c8'
p486
asI1486932203
(lp487
S'539dba75-e034-473a-b3f5-f3e1ff115e4b'
p488
asI1486922204
(lp489
S'f55e5018-a2f1-40f3-953d-999a273db0fb'
p490
asI1486926301
(lp491
S'0782e92c-b4a8-45b9-9992-586abb12ea1b'
p492
asI1486886444
(lp493
S'0ff5aa4f-e50d-44f9-a18b-5681aa424ccf'
p494
asI1486926306
(lp495
S'1e0be421-d5d0-44a4-b08a-6c307d63e66e'
p496
asI1486871291
(lp497
S'd00e346a-52a8-4629-8eb3-54e77823fe6b'
p498
asI1486944740
(lp499
S'b479225c-9a40-444a-9a30-ec52f624bc40'
p500
asI1486873062
(lp501
S'f0b26e29-9d05-41e6-8de7-d7865281036e'
p502
asI1486877159
(lp503
S'e2c2a638-59be-4258-b325-22d6f7b18535'
p504
asI1486916073
(lp505
S'14f6c2f2-94c5-4a3a-8b14-ea2251e57090'
p506
asI1486897644
(lp507
S'29795231-54e3-42b2-8c99-af7fd4cb3452'
p508
asI1486908498
(lp509
S'6133528b-df32-4dc3-a1ae-e6a445b5a0ed'
p510
asI1486934510
(lp511
S'04336efd-71ff-4c43-89b0-e89032bbb778'
p512
asI1486932463
(lp513
S'90511068-68aa-4e62-92d5-f82f056c965a'
p514
asI1486860784
(lp515
S'df8b5d8d-7c99-4d69-b5af-dd80763e84c3'
p516
asI1486887409
(lp517
S'22c88bd6-c0b0-4596-8d19-21916bad1dae'
p518
asI1486896333
(lp519
S'adbdd249-a033-48fb-aeab-557cfc7ab313'
p520
asI1486860788
(lp521
S'fdfc58e2-6769-4812-b322-f2f067951e20'
p522
asI1486889461
(lp523
S'd3f8857a-5352-41bf-b87c-aa75376a7a8f'
p524
asI1486944681
(lp525
S'f56770d6-d7d3-443c-a6b1-6609677174e1'
p526
asI1486918138
(lp527
S'4ed83f70-c9c1-4d4d-b767-2cb4fd883901'
p528
asI1486862843
(lp529
S'647fca6d-46d8-4d96-b71f-b5288f9ad2f3'
p530
asI1486892719
(lp531
S'48068128-7d91-4f93-b0e9-ab793ff3c907'
p532
asI1486887422
(lp533
S'e75de9f6-4226-4160-bd9e-51bfafab9ab8'
p534
asI1486882560
(lp535
S'55a4237f-ede0-4536-a7a6-1b4f8f568ec9'
p536
asI1486899715
(lp537
S'b6b16e06-73ee-423b-af11-5f065ddf8177'
p538
asI1486944877
(lp539
S'c644f92f-3f21-46de-a003-e220a2b8a653'
p540
asI1486905865
(lp541
S'f6bffd84-b4a9-4ba1-b222-3c51015056e2'
p542
asI1486885390
(lp543
S'54b4fc1e-531c-466a-8b04-13ba2fe6151c'
p544
asI1486940689
(lp545
S'94fb3a24-3e61-4cdf-a995-eebcbab12583'
p546
asI1486938820
(lp547
S'00da7b35-e6e8-4c21-9853-282d92dde323'
p548
asI1486916697
(lp549
S'39072612-bc48-4e62-8266-65cd15407472'
p550
asI1486914072
(lp551
S'a9253767-6b16-453b-a6f7-f03f75fd0dee'
p552
asI1486869017
(lp553
S'f864ae8b-6950-4200-ab72-17d940c60bef'
p554
asI1486877210
(lp555
S'eea18d5a-1405-499f-a88b-7c74d9e01431'
p556
asI1486931375
(lp557
S'3133e62e-2af9-487d-bd7a-4992cd9e1ea0'
p558
asI1486873116
(lp559
S'b2a51b1d-548c-4ccd-a7b0-52617ce204fe'
p560
asI1486938653
(lp561
S'32c1edfd-7bef-4e39-abd2-4c8c5a3207cf'
p562
asI1486877216
(lp563
S'83dd27f1-7a44-4d3f-93b0-40798bf65748'
p564
asI1486938662
(lp565
S'e825de36-9ab9-4657-adc2-9843856229e5'
p566
asI1486881320
(lp567
S'7952b092-5458-4c15-b8be-dc61b1952dc1'
p568
asI1486909532
(lp569
S'55397961-e523-442b-bdf2-c329136b77f5'
p570
asI1486912042
(lp571
S'54a842de-175c-4eb5-82fd-4f38e7c0668a'
p572
asI1486877789
(lp573
S'157459ec-a5f9-4b8a-b298-8754364a0c0a'
p574
asI1486889520
(lp575
S'47481d7d-60f6-4103-ad40-0fa680ce5013'
p576
asI1486920243
(lp577
S'338bcdf6-3e34-4b92-b217-fa399a9cd7e1'
p578
asI1486895668
(lp579
S'94e36f91-66ac-4447-a6ab-f5ebf564771b'
p580
asI1486938679
(lp581
S'f535ece3-c458-478c-a660-040116a9f318'
p582
asI1486940729
(lp583
S'1de48e27-08b0-4ee4-a590-e28c7ea370d1'
p584
asI1486938684
(lp585
S'525db492-f9ca-4ded-92d5-4c72ea3988ce'
p586
asI1486938686
(lp587
S'87d445fe-8cc9-4140-b968-8681da573c3d'
p588
asI1486933429
(lp589
S'8a4cff01-3be8-4309-869e-12d76ff8a453'
p590
asI1486873154
(lp591
S'02ac99f7-debb-4ad5-94aa-3e6539f5015d'
p592
asI1486867211
(lp593
S'1bd9b1a9-a348-4fc3-a5db-5629fc89fca9'
p594
asI1486919777
(lp595
S'2ca87b8c-618f-4ebd-b679-dc7492e48016'
p596
asI1486891595
(lp597
S'f84b2ec5-76ca-4ad0-a446-01ed3ff39d2a'
p598
asI1486938233
(lp599
S'b2c8a4a0-a525-432d-99df-28a72b8e1591'
p600
asI1486893154
(lp601
S'c9d68b82-c1f2-499c-8174-7e5f7cc84fa4'
p602
asI1486924366
(lp603
S'c2820ae9-946f-4d75-82cd-a6db2efd882c'
p604
asI1486914131
(lp605
S'22c9aec7-98c8-4f7a-b71e-b2ea8a651918'
p606
asI1486910036
(lp607
S'00175f64-1f6c-4b25-9696-841224df596a'
p608
asI1486922510
(lp609
S'e14b96fb-26a7-4f44-81b8-1392c2aff2bd'
p610
asI1486862934
(lp611
S'e2b97eda-586e-4738-9191-5180766a17c0'
p612
asI1486895703
(lp613
S'b4068bbd-c879-474b-a234-ff9d65dbd57d'
p614
asI1486883417
(lp615
S'0fe6e02d-6f0e-4b1d-923f-84f1b1a349b6'
p616
asI1486944860
(lp617
S'd269c5ec-ca18-431c-bbd8-129fc70b8230'
p618
asI1486928477
(lp619
S'e2d0aa4e-6f18-4ac7-8af3-8a0624596d44'
p620
asI1486915685
(lp621
S'64dad963-4f57-4cf1-8332-6b3d621d53c4'
p622
asI1486918241
(lp623
S'dd530f13-cd14-4539-9226-e8526077c9a1'
p624
asI1486942819
(lp625
S'd1cb641c-bb4f-4d03-a9cb-ccf71c20224a'
p626
asI1486891620
(lp627
S'cfdde393-98df-4689-89bb-14b1c554d812'
p628
asI1486924389
(lp629
S'ba50ca5a-25ed-4a05-ad49-dda05e566f33'
p630
asI1486930535
(lp631
S'e8cf4504-ac01-4712-9cf7-fae2edd7e00a'
p632
asI1486893672
(lp633
S'25a9181c-5159-412e-b1ab-391a219df39c'
p634
asI1486918252
(lp635
S'a97aad87-d876-4b6e-91eb-061b067e856b'
p636
asI1486895725
(lp637
S'069ffb83-3f14-4b4b-9534-97d9473fad0e'
p638
asI1486928496
(lp639
S'ef00db7b-27db-4cbb-ac10-a3bf2d3a6dc6'
p640
asI1486905969
(lp641
S'f8219514-dc32-48d8-81bd-c3fbc8722a97'
p642
asI1486882971
(lp643
S'0e6021e1-03d7-4ceb-9105-8cb3b6182c65'
p644
asI1486870292
(lp645
S'3a11d1dd-4096-4112-89ac-448aad3b9992'
p646
asI1486928506
(lp647
S'1105832d-65a9-4700-b2c4-c53a92354f10'
p648
asI1486912124
(lp649
S'305f8561-1920-466b-995c-d596d26d13bc'
p650
asI1486859370
(lp651
S'bdf74c2c-20bc-4d71-8392-ad96b21e82ac'
p652
asI1486907931
(lp653
S'62afaf00-9459-437e-8738-e2b71047968a'
p654
asI1486942849
(lp655
S'477c2e6d-188d-4c60-aff0-53607d29cffc'
p656
asI1486914178
(lp657
S'66cfa224-1ccc-4d5d-954a-0903f482155d'
p658
asI1486920323
(lp659
S'9524055b-2d5d-480a-8b76-bfc438937738'
p660
asI1486942853
(lp661
S'e6d8b94c-0234-40cb-8c14-10aed1b508ce'
p662
asI1486926081
(lp663
S'f891fda4-a45f-4e57-abcc-6d3ca361de22'
p664
asI1486938762
(lp665
S'1e66df58-600e-45d3-983f-adee26d9bf0f'
p666
asI1486920331
(lp667
S'1ff66c18-973b-4380-a28f-522be97d60c8'
p668
asI1486903713
(lp669
S'ac5fa66f-fff1-45fd-a4a1-e3761ad83fd6'
p670
asI1486936173
(lp671
S'fffcc378-547f-40f4-8b9a-19395722cadd'
p672
asI1486873232
(lp673
S'9d2df79d-e761-405c-95aa-f23e780b8c9b'
p674
asI1486926890
(lp675
S'2d7352a0-9f91-4b71-b6a9-a2796a2cbf0d'
p676
asI1486938772
(lp677
S'f9ff7c2b-48d1-4fc2-904c-ed86e246239c'
p678
asI1486871190
(lp679
S'bced37d4-0424-4d77-afdd-e8523ddde881'
p680
asI1486916247
(lp681
S'9224b766-02ac-4057-a42c-43dce9bd7ad7'
p682
asI1486869144
(lp683
S'559ecd7e-1c7d-4265-a472-c04e38c9c9c5'
p684
asI1486916249
(lp685
S'0d266a42-bfee-4020-a8c1-88c894faf70f'
p686
asI1486943921
(lp687
S'bcff2c74-7a25-48f5-879b-447af6cbb841'
p688
asI1486912159
(lp689
S'd5d12c28-c4f5-4151-8653-587f7efe2f76'
p690
asI1486926496
(lp691
S'3484180d-07f1-4175-baad-c7836055ed56'
p692
asI1486875297
(lp693
S'8f4a9ceb-58a0-49aa-bd2b-7f1403cf24ad'
p694
asI1486938788
(lp695
S'0a5bcac6-a3bb-49af-b533-3002c8b1aa61'
p696
asI1486881446
(lp697
S'aa70ca96-fb59-4c60-9efe-f34acf762ff8'
p698
asI1486897832
(lp699
S'c9cd6111-fae4-4002-abc5-c82b552380f2'
p700
asI1486924457
(lp701
S'0e60ea9f-257e-4483-90be-403847562a60'
p702
asI1486890679
(lp703
S'ebd65c0b-923c-46fb-968b-026ea311c29e'
p704
asI1486863469
(lp705
S'bd944bf1-0415-4352-9638-3a0828a02efb'
p706
asI1486913992
(lp707
S'f8968a06-e9a7-46b9-a408-d3ef7d628f47'
p708
asI1486858930
(lp709
S'86c005ff-8e80-4577-8e73-c80d84e43eb3'
p710
asI1486902387
(lp711
S'5fef5d32-73d8-4bae-81f9-be9a45c3f404'
p712
asI1486865076
(lp713
S'df70e422-e30a-4697-93df-a40ea40987e7'
p714
asI1486918325
(lp715
S'ae7d7906-1630-4067-b9c9-c10b8749faf2'
p716
asI1486942903
(lp717
S'5db9f461-0ebd-48db-874e-93be03f4327d'
p718
asI1486879532
(lp719
S'fa90c81e-37dd-47e2-a93e-d0998656dee4'
p720
asI1486940859
(lp721
S'dfe7c931-fce6-4d39-80ca-b811819c2686'
p722
asI1486880041
(lp723
S'ca427d63-3deb-4f3e-9e81-b45142322f0b'
p724
asI1486871230
(lp725
S'ae3e42c0-f361-43f9-a20a-775d5a24051f'
p726
asI1486924479
(lp727
S'0d8bdb18-9f6f-49b6-a4e0-4ac029e0dcb4'
p728
asI1486899904
(lp729
S'c92ef978-f88f-4733-87b2-eaf4fd791c0e'
p730
asI1486910148
(lp731
S'319cea42-b266-48dc-974d-fe3be691a134'
p732
asI1486934725
(lp733
S'617b6534-c6b7-4cdb-83ee-148303a56d0a'
p734
asI1486897863
(lp735
S'a204493a-7745-4bb6-880f-b12c346e5de0'
p736
asI1486876427
(lp737
S'eac7d811-404c-4993-8bc9-d327b454c5a6'
p738
asI1486918345
(lp739
S'0146aabf-475b-4a35-9372-94f87b511522'
p740
asI1486893770
(lp741
S'd90fb747-d203-4bad-93f4-2f90caddf34b'
p742
asI1486877387
(lp743
S'a4e9d281-8356-42a4-8717-3c73195cfbb7'
p744
asI1486877391
(lp745
S'7fbad38a-6c56-42fd-ae3f-acb34d34bb92'
p746
asI1486879440
(lp747
S'29178251-5409-42de-bd89-6b7a98a9bda4'
p748
asI1486922449
(lp749
S'4ee01a37-0b4a-49f5-832b-1c3942482b55'
p750
asI1486891811
(lp751
S'1fe8d14e-756b-423d-be90-d7b2098c65b0'
p752
asI1486932693
(lp753
S'a4b2a654-d12d-4ea3-9995-1ed057e96b2f'
p754
asI1486881250
(lp755
S'a2644414-8455-4050-841e-06ba17683095'
p756
asI1486883543
(lp757
S'f5632b15-e74a-43f3-bf06-992ec10eb9e5'
p758
asI1486881497
(lp759
S'd1919842-9520-4d7f-9b66-e0ddff96ebab'
p760
asI1486940348
(lp761
S'9e1675bf-8dc5-4729-8c74-5c0771476803'
p762
asI1486863069
(lp763
S'6744ab3e-e2e8-439a-9995-ad7830c55745'
p764
asI1486883552
(lp765
S'172ffd65-c5d4-4119-9c02-5db2adc7e917'
p766
asI1486895844
(lp767
S'0a37d75f-092b-4029-9260-9ed5d394dbef'
p768
asI1486863078
(lp769
S'81f92fe0-eb49-46df-b0f1-5702c8129f5c'
p770
asI1486873321
(lp771
S'246eafb2-3012-42c1-ae0a-d5d6fc3cb820'
p772
asI1486929689
(lp773
S'86e8b302-3782-4e59-a8b7-0ac782548de3'
p774
asI1486924525
(lp775
S'c04b35f4-ea53-456e-8fdb-b68ac5b323e4'
p776
asI1486932718
(lp777
S'd445ab14-0862-40b4-93ed-2ba5f03c8ddb'
p778
asI1486863089
(lp779
S'34f1897f-4ea3-4ae0-a04b-8ca4d631c195'
p780
asI1486912242
(lp781
S'8551af5a-0b82-4232-bee3-6896cb996966'
p782
asI1486897908
(lp783
S'f192fd95-02ff-4fa4-a0aa-25c0f6d3f87a'
p784
asI1486909183
(lp785
S'47f86a0e-5988-484b-a141-c64730eb1304'
p786
asI1486934779
(lp787
S'b5707938-5be8-41dc-b50c-e9369e725fd6'
p788
asI1486920444
(lp789
S'202e409b-1208-42c9-9a7a-d70b6d46aa41'
p790
asI1486882430
(lp791
S'0334194a-f832-4d6c-83d7-6cd9b6425259'
p792
asI1486873344
(lp793
S'db717ba9-bf18-4fd6-a7a5-6db8dc2a500b'
p794
asI1486916355
(lp795
S'd2d1118b-0508-4bd1-a887-642edc4da2ba'
p796
asI1486906116
(lp797
S'3d09c170-0bc5-4710-86f0-4bc878616969'
p798
asI1486920453
(lp799
S'5dd83f11-3dc4-4edc-a09b-0dc2e7303676'
p800
asI1486877446
(lp801
S'78eb0d74-2eed-4ea5-9313-99f664116c2d'
p802
asI1486936839
(lp803
S'f4a67bd6-d992-4e89-a96f-b69db82a743d'
p804
asI1486873353
(lp805
S'e3a7a10f-5f61-4cb5-9d99-fc3c6fa3b3b5'
p806
asI1486906123
(lp807
S'4e3a41f9-1703-48de-b48d-2b2cfc6fa2a4'
p808
asI1486859244
(lp809
S'3842e314-8f84-4bce-9e89-7ea9b51a7f05'
p810
asI1486899982
(lp811
S'82c39189-0c66-4d59-8cc2-aead6a5f5671'
p812
asI1486910224
(lp813
S'a029d360-9d86-46d7-b6fe-86d33406dbe6'
p814
asI1486939790
(lp815
S'19a67b3d-c2d1-4b30-aa17-e182cae56f39'
p816
asI1486887700
(lp817
S'814b8fc0-e845-4f4c-a9c6-e48b08f80336'
p818
asI1486920475
(lp819
S'742efcbc-61d6-47b7-a6f8-7bd3aa0d88b8'
p820
asI1486873376
(lp821
S'b501678f-a77f-42ad-9161-aa8489c74601'
p822
asI1486897954
(lp823
S'16bfbddd-4a9c-4d7b-94da-d2506224f356'
p824
asI1486859043
(lp825
S'74793557-0191-482d-b333-bf863b842102'
p826
asI1486932772
(lp827
S'084397a3-9f3e-4dd3-9315-0827a943565b'
p828
asI1486914694
(lp829
S'a3a22586-468d-4c49-b729-fdebcb065228'
p830
asI1486930396
(lp831
S'2242f5a8-5c1c-4b29-b9b6-c531820d33fa'
p832
asI1486908202
(lp833
S'189f579e-7093-4428-b0b0-d4b7484d4952'
p834
asI1486940971
(lp835
S'51e7c49f-8664-41eb-b5df-5f34bae84402'
p836
asI1486908204
(lp837
S'b23124f6-79ac-4568-a02b-192beb870030'
p838
asI1486895917
(lp839
S'7d395879-57c6-437c-b6cd-d639e6b7e937'
p840
asI1486943023
(lp841
S'cee2a096-35b4-4028-b4e0-cdf58fb60bcd'
p842
asI1486912304
(lp843
S'65fb0e18-cf32-4d25-a93f-cae0362195b6'
p844
asI1486907187
(lp845
S'5a3936cb-f772-4bfe-b4c1-b53efbf09835'
p846
asI1486910262
(lp847
S'a0f555ad-6a54-4660-9ada-8fd90cd72bce'
p848
asI1486889783
(lp849
S'3900e580-40cb-4f95-ab08-6527a94eba95'
p850
asI1486902072
(lp851
S'9b634acc-2449-46fd-9218-3f8791c2c0cd'
p852
asI1486900025
(lp853
S'02a79041-26d5-47bf-bb68-2e466d1ea062'
p854
asI1486859066
(lp855
S'816c307a-ed89-43ff-88e7-8bfa0d85b457'
p856
asI1486926653
(lp857
S'16142f0f-1620-4895-8bbd-e028d7b5847b'
p858
asI1486910272
(lp859
S'21422037-3029-4bc2-a35d-46387cbbea8b'
p860
asI1486928705
(lp861
S'436b6558-e75e-4440-b70c-721095211751'
p862
asI1486925281
(lp863
S'01d3a967-43f5-4428-b570-c120f2a8b079'
p864
asI1486925964
(lp865
S'726a09a8-a306-440f-9556-35c8f2fc64a9'
p866
asI1486881610
(lp867
S'99e02ae2-9a11-4a6c-8b03-efe6c99679fa'
p868
asI1486928715
(lp869
S'd022eea3-cf15-4e37-ad51-85fe2fa7ba0c'
p870
asI1486914380
(lp871
S'6c0060e8-1d81-4e84-b853-89711b7e5572'
p872
asI1486861794
(lp873
S'5c9f5a80-8a24-45f2-a173-ddb3f8830642'
p874
asI1486863501
(lp875
S'dc43f1d0-0820-49cd-942d-5ce1f71a8cd0'
p876
asI1486871376
(lp877
S'4f6b4788-788c-4e85-b62f-b5a9724d6ee6'
p878
asI1486890808
(lp879
S'8686604e-db56-4772-9909-80a6aad61a8c'
p880
asI1486936922
(lp881
S'97308bcd-a400-4f42-a693-4ba2c9cf3807'
p882
asI1486918799
(lp883
S'30398cdf-8ecc-4508-bb46-c13027c259d5'
p884
asI1486943069
(lp885
S'e26142bc-3eab-4d8c-95f6-a3224a0e5a1a'
p886
asI1486930782
(lp887
S'7e9e57c9-9b1e-4266-ae89-f4bf76a39580'
p888
asI1486862793
(lp889
S'72ab0b4f-ee7f-4928-9233-53bb2adbb0c6'
p890
asI1486932836
(lp891
S'9766599c-787b-466d-b274-bf90a1d80126'
p892
asI1486887782
(lp893
S'cdda84a7-8c83-4d27-9ead-60bfb39ade35'
p894
asI1486866577
(lp895
S'36d83c29-708e-4d5e-9aae-d6423a84df1b'
p896
asI1486932841
(lp897
S'46c87bd1-ec71-483d-b56e-9cb2fbea8373'
p898
asI1486914411
(lp899
S'd72b4fa0-d508-4019-b63e-793cb177383b'
p900
asI1486873458
(lp901
S'6bbc2335-ff50-468a-a2b3-18dbe2fd1dc4'
p902
asI1486861171
(lp903
S'e6f356bb-5a0c-4347-af62-8dff3cd5877f'
p904
asI1486883117
(lp905
S'abfee830-4bf4-4f90-9854-9f5ffc440192'
p906
asI1486859132
(lp907
S'f5575f7c-3c87-4513-9164-3fac8e0f9e3b'
p908
asI1486904191
(lp909
S'786bb6f1-a96a-48fe-8fb8-c95d50ab37a2'
p910
asI1486912385
(lp911
S'43e88d61-134d-4ed3-a942-a7b34d333248'
p912
asI1486861187
(lp913
S'0bcce43f-c5ca-4a68-94bb-19bfdfe9e119'
p914
asI1486877405
(lp915
S'4ed45baa-ae03-4bef-bcdb-9e3065783c67'
p916
asI1486863749
(lp917
S'7f5c6271-0835-4351-a9cc-c8aea2f29c1a'
p918
asI1486879212
(lp919
S'9123076b-2da6-4036-906d-ae9bf92cae08'
p920
asI1486904204
(lp921
S'1b25852b-61de-4022-8905-34c91ce1bc44'
p922
asI1486934926
(lp923
S'82c03a6e-b15a-4997-8ded-93da9151ca80'
p924
asI1486887004
(lp925
S'e7a3d65a-746b-402e-bcb2-56059e3e3d51'
p926
asI1486873489
(lp927
S'75486ace-f482-48f9-9e27-200bc118d569'
p928
asI1486904210
(lp929
S'ca34593f-66bf-45d8-94e1-67b4f5b7b3be'
p930
asI1486863251
(lp931
S'd11590d0-d1bb-4143-aad5-35eedbf52b07'
p932
asI1486877589
(lp933
S'30ba133c-872d-41fa-ab4f-823e1bbf6de2'
p934
asI1486941078
(lp935
S'9bd24deb-5ef1-4f77-a6a7-73447ab690c0'
p936
asI1486893975
(lp937
S'f7ccadaa-b22d-4342-bde6-543f345fc07b'
p938
asI1486936559
(lp939
S'13e00d92-4317-4cc5-be41-ee2357c57009'
p940
asI1486910364
(lp941
S'36d146f7-ff44-4c85-9e68-df65072404b1'
p942
asI1486906269
(lp943
S'b880bdb6-0c53-429a-95bb-638859190566'
p944
asI1486891935
(lp945
S'2360923c-cd3f-4653-abb6-4f8c052ad49c'
p946
asI1486934944
(lp947
S'39830e95-8085-46ca-b7be-e959d1714c5b'
p948
asI1486920859
(lp949
S'b312a9ac-b9b5-4414-9fc5-39a095b113e4'
p950
asI1486891942
(lp951
S'35e617e4-cf6d-4010-ba87-576bfcca336b'
p952
asI1486871463
(lp953
S'4e508f36-46b3-430a-83a9-cc4373854e0f'
p954
asI1486906281
(lp955
S'fa914c22-4f4c-41ab-95df-6f33c43fcc4a'
p956
asI1486889898
(lp957
S'f0a05121-f7a9-4742-90b6-fcfa38099b7d'
p958
asI1486885804
(lp959
S'129e71bb-c624-4d9e-9541-c6164a76fb91'
p960
asI1486898094
(lp961
S'091c2d39-2c3a-4379-99fd-cbfa9ff73ec4'
p962
asI1486896049
(lp963
S'28f38532-fc29-4e8d-b8bd-ccff59d6cec9'
p964
asI1486910386
(lp965
S'3382b83d-6d68-4f21-a643-03f702d7b54c'
p966
asI1486943155
(lp967
S'0161edca-3549-4c8d-9eb3-6e6a6eed8933'
p968
asI1486941110
(lp969
S'ce8f2ba2-ebde-48e4-887a-fd10a0832f8c'
p970
asI1486860409
(lp971
S'a865fdef-eabe-489f-a0b3-5595bef321bc'
p972
asI1486937019
(lp973
S'08fa3fe0-91de-4a5e-a185-52fb3ce3699d'
p974
asI1486871484
(lp975
S'24183fc5-7b95-4649-82a3-825399a5a199'
p976
asI1486941118
(lp977
S'7e47cfaf-9f33-4fe3-80df-950247e4cc2a'
p978
asI1486871488
(lp979
S'6e97954c-a643-430f-913b-109fbca56e9a'
p980
asI1486871712
(lp981
S'fb5411fd-38df-4422-8e7e-ed3a39c6b8f4'
p982
asI1486869444
(lp983
S'5ced3bd9-378a-44c0-8d6e-8253eb5d8a8a'
p984
asI1486873543
(lp985
S'774f00e5-6a77-4a42-995f-ddde8b6246c5'
p986
asI1486875468
(lp987
S'001eb4ca-91ff-44c1-b991-e9efd8945dcc'
p988
asI1486889932
(lp989
S'3cab96f1-63ad-4109-abd3-2c5c4a5c169f'
p990
asI1486913698
(lp991
S'3c37814c-1f8b-4ede-879c-706f06f5d203'
p992
asI1486880248
(lp993
S'c72fd15f-c51f-4169-bbb8-fc5594f760c2'
p994
asI1486900387
(lp995
S'934ad4d6-700d-493d-bdb5-c109da1b76df'
p996
asI1486928852
(lp997
S'dd1c8bdb-430d-4f9b-8421-0c151fa353f7'
p998
asI1486889942
(lp999
S'cc5b0e2a-1f39-4517-9b8b-b2e5751afe25'
p1000
asI1486878201
(lp1001
S'7004b9a6-d08b-4c72-aec6-51f9bc13a164'
p1002
asI1486889945
(lp1003
S'98d1a690-b310-4d5a-adc2-e7ed4ee8fc6a'
p1004
asI1486863323
(lp1005
S'a8b3f41b-ee26-4185-8ca9-1fff146c1af6'
p1006
asI1486939100
(lp1007
S'3aa9ab21-7347-499e-a7dc-3c5625f03c9f'
p1008
asI1486863325
(lp1009
S'69f59857-54fb-45bc-89be-b8866f02c39a'
p1010
asI1486943198
(lp1011
S'06c0d897-364b-4f77-b9f3-3205463f291f'
p1012
asI1486895952
(lp1013
S'edadd7ae-096b-4559-a60b-a6cc3fa5a8b3'
p1014
asI1486910435
(lp1015
S'f005c499-f534-462d-a500-bdfa30ceed9d'
p1016
asI1486877596
(lp1017
S'10c06ac0-1a3a-4a7f-b4a9-610c21c12b21'
p1018
asI1486918636
(lp1019
S'608b0ac2-99f8-40b5-8bca-eed46cd40047'
p1020
asI1486861939
(lp1021
S'7bc0053b-e674-4897-afe5-d9668a8993fe'
p1022
asI1486863343
(lp1023
S'51891a59-0b41-4431-90aa-3045d1876a7b'
p1024
asI1486924785
(lp1025
S'ec916cae-fcb6-4db2-be00-40fb360656db'
p1026
asI1486937472
(lp1027
S'1602031e-03de-45df-a0e9-9cbf21dc5e67'
p1028
asI1486878892
(lp1029
S'0a1673a6-5de7-467b-9b6a-0d08d1d8cb5b'
p1030
asI1486924788
(lp1031
S'339d7796-2fc8-4f35-bda7-7501bbfa39c6'
p1032
asI1486928885
(lp1033
S'aefbdc91-42d6-45cb-826b-3db9d2691531'
p1034
asI1486867449
(lp1035
S'22913ded-7596-4ee1-8764-1189a2e1079f'
p1036
asI1486877283
(lp1037
S'352ea6fc-8712-4f21-990d-a7eb99927aa4'
p1038
asI1486918826
(lp1039
S'b3648398-2a54-4bf6-8a1a-ac6169a536b6'
p1040
asI1486912510
(lp1041
S'f02454ee-1a5e-486b-8179-c17d7272bf78'
p1042
asI1486939135
(lp1043
S'61de8c7f-115d-467a-8c9e-c2f9607d629a'
p1044
asI1486894081
(lp1045
S'988949e0-34a8-4b2e-8cc6-d8b562aaf04e'
p1046
asI1486859266
(lp1047
S'6c442918-36ce-41ca-87f2-91591968fa0c'
p1048
asI1486943235
(lp1049
S'63bf01ea-bd2c-43df-a9ea-29610f42ccf8'
p1050
asI1486917121
(lp1051
S'a21275a1-fd16-42ad-9c42-5a7692b20772'
p1052
asI1486937096
(lp1053
S'5d23dbad-ee55-4314-86f3-a759b3e7721b'
p1054
asI1486879753
(lp1055
S'd05da081-2f26-4447-9260-7fa453da7e7f'
p1056
asI1486912527
(lp1057
S'4e9332f9-2994-4ae0-ac8e-9e30520e1700'
p1058
asI1486879760
(lp1059
S'3d2d5da0-8d96-4c9b-9ada-80a7e86bc507'
p1060
asI1486933507
(lp1061
S'32f26f34-b9c0-4ed7-9118-7e6955ca013f'
p1062
asI1486879764
(lp1063
S'bd8f43ad-735a-49dc-8eb4-688fa553b5e2'
p1064
asI1486904341
(lp1065
S'c0d28ca4-4fa0-4edc-b611-621adc24f494'
p1066
asI1486892055
(lp1067
S'e45cf6fa-6d43-411d-b40b-e50d83c305dd'
p1068
asI1486916634
(lp1069
S'd5577ab9-4531-448d-a320-d133f18ef73d'
p1070
asI1486860463
(lp1071
S'edf81842-b5cc-4ec0-8b55-ecd9b60aa82a'
p1072
asI1486900253
(lp1073
S'f4ff5ff8-2fe4-4c58-bcbe-40b8c54943b1'
p1074
asI1486928927
(lp1075
S'75230a14-939b-4728-86fa-1d87aa49bbc8'
p1076
asI1486937123
(lp1077
S'54849900-f3c8-48fc-8db1-9c23ec314b0a'
p1078
asI1486935077
(lp1079
S'3554a8a0-706a-44a6-9a80-ca8b0756d1c6'
p1080
asI1486900265
(lp1081
S'd39b1508-e151-4efd-9f45-180acfc3eb71'
p1082
asI1486902314
(lp1083
S'1160d629-4865-43af-b11c-3deddf4a6852'
p1084
asI1486869549
(lp1085
S'c337a63a-3126-435c-87d0-c5526990e5fe'
p1086
asI1486916655
(lp1087
S'f0faf000-41f5-4d36-89d8-46cdeafea1ab'
p1088
asI1486902323
(lp1089
S'fdfb38de-a32f-4cd2-9844-d8b376ec34c9'
p1090
asI1486861364
(lp1091
S'882541df-0910-4561-98c2-8f3620a50c9d'
p1092
asI1486916666
(lp1093
S'aa83a9b4-7f4c-4684-894e-d939d8a70d22'
p1094
asI1486901740
(lp1095
S'a9cf9372-41c9-453b-a93e-87515417812b'
p1096
asI1486875710
(lp1097
S'16595e12-1482-4710-9e52-114b2e5bd42c'
p1098
asI1486883903
(lp1099
S'846adc85-40f7-4aaa-b698-a3908b6b4172'
p1100
asI1486888000
(lp1101
S'460d9b35-9488-4880-ae0f-008354e96053'
p1102
asI1486894146
(lp1103
S'2b8a031d-6256-4ab1-ba17-a3fdc0d04a3e'
p1104
asI1486885957
(lp1105
S'd1c02551-1379-4f62-99ee-09c895d9fdc6'
p1106
asI1486909281
(lp1107
S'2f584040-3b5f-4c5f-ac94-621d391b288e'
p1108
asI1486924873
(lp1109
S'b068b48e-a2b4-4753-b6b6-ffb555ff9645'
p1110
asI1486883914
(lp1111
S'8acc2b52-78d2-479a-9258-d283ac18b58a'
p1112
asI1486863436
(lp1113
S'93d3b0a7-fa08-4c1f-9013-2894fdcce181'
p1114
asI1486933072
(lp1115
S'51dc4758-ac2c-44e0-b602-e64d225a3ce7'
p1116
asI1486931474
(lp1117
S'51f8092a-d39d-4b45-b443-c270718a742b'
p1118
asI1486859790
(lp1119
S'64e1235f-a497-4a41-a7a3-cd39ef52520b'
p1120
asI1486874940
(lp1121
S'9be29fc6-49aa-4d7a-be83-c87f2ab96d91'
p1122
asI1486904164
(lp1123
S'bb0e849f-88f8-4acd-b2bb-bd92b3b094bb'
p1124
asI1486924891
(lp1125
S'9ee68b1f-f40a-4ece-9850-44d17b4f35f5'
p1126
asI1486865501
(lp1127
S'527bbdbb-ef6b-41b6-8dbd-cc0cd61f4cdf'
p1128
asI1486891780
(lp1129
S'724a5621-5ce7-4d5e-8783-e461f8047dad'
p1130
asI1486881890
(lp1131
S'f4ee2280-c23b-47b2-a95e-3e81da13233f'
p1132
asI1486920805
(lp1133
S'e69cec26-c9ad-4535-944c-b6b7398fd15b'
p1134
asI1486877802
(lp1135
S'54c853b9-2f70-4bf7-b590-b27ce0f553ce'
p1136
asI1486912616
(lp1137
S'320f1d09-f580-4677-a7e3-7904dbc0ee41'
p1138
asI1486867561
(lp1139
S'61d7e97f-4923-481c-8328-bafe58e4095d'
p1140
asI1486894186
(lp1141
S'bb3bebed-3571-4d7b-b2aa-7a9ca9acd408'
p1142
asI1486928743
(lp1143
S'f81abd14-64e1-4c04-859e-602ba96a5db0'
p1144
asI1486935149
(lp1145
S'6aace00c-6540-4d89-8c5b-6229419cf673'
p1146
asI1486890173
(lp1147
S'ad584f19-956a-449a-86b8-beb74cbb7484'
p1148
asI1486918768
(lp1149
S'd834db49-9293-436e-8656-5ad77cc0c162'
p1150
asI1486898290
(lp1151
S'd7d61326-5c9e-40d7-9962-912f33bc0f9b'
p1152
asI1486863475
(lp1153
S'22ef875a-dd2a-46c8-b385-55bc9c36c71e'
p1154
asI1486869621
(lp1155
S'c0ea09cf-e47f-4213-8ab4-ad3ac9d832bd'
p1156
asI1486918505
(lp1157
S'468b3b72-1b77-492b-9d1c-fe8ce89bac0f'
p1158
asI1486890110
(lp1159
S'0cecdd68-7c4e-48c7-94f9-9574b4afd415'
p1160
asI1486859393
(lp1161
S'393ca058-94c2-4a57-b88a-c888e0f87cec'
p1162
asI1486881922
(lp1163
S'6a9ec59b-f855-455f-8394-9d5a28e204fc'
p1164
asI1486910595
(lp1165
S'0f9c4c6c-b633-442d-aeb1-44c6fccb2f7c'
p1166
asI1486898469
(lp1167
S'87b43aeb-491c-4b6d-a2c5-49d7632f29eb'
p1168
asI1486900358
(lp1169
S'd76adfb2-4b99-4f15-a2ca-8d9a6c9d7245'
p1170
asI1486892167
(lp1171
S'59617473-3a02-4c8a-8de5-9ee074dc3f82'
p1172
asI1486896265
(lp1173
S'fb2bf2a2-e08c-4c03-90fe-be42a3a13e94'
p1174
asI1486859403
(lp1175
S'1a717a99-c247-4913-a344-727c7eb7bda7'
p1176
asI1486899424
(lp1177
S'2c8d2a18-dcbf-4b4b-86d2-c841ac08174b'
p1178
asI1486894223
(lp1179
S'001763bb-415b-46bd-af50-29a89a0e22d2'
p1180
asI1486926360
(lp1181
S'b851f29d-30cb-4307-9a11-5e7d43cd4ef7'
p1182
asI1486892180
(lp1183
S'cc47dcd2-20bf-41ff-90d5-0ef1e9af481a'
p1184
asI1486918805
(lp1185
S'7fdf3605-6a73-4886-ab39-a522798d9408'
p1186
asI1486904471
(lp1187
S'56116809-50d7-4022-8bee-48d7432d47de'
p1188
asI1486892185
(lp1189
S'3d9d4f50-3a00-4da0-809b-82c3740c39ff'
p1190
asI1486918810
(lp1191
S'9df1fab6-85dd-44b7-875b-2c88821fdd7c'
p1192
asI1486892187
(lp1193
S'64f15d7b-1d8f-410d-abe9-4264ef839cbc'
p1194
asI1486873758
(lp1195
S'4b3306e2-0d44-4090-a37a-fb02da6f3b05'
p1196
asI1486865568
(lp1197
S'feff04fb-dba5-41f2-8af7-ac0b33f8c4cf'
p1198
asI1486872091
(lp1199
S'2a50dd9d-386a-494d-a2e3-5e3a4d40e6a8'
p1200
asI1486898341
(lp1201
S'a7716d66-1018-4312-a97c-98551d60c0e1'
p1202
asI1486867623
(lp1203
S'16bc105d-cb69-4e90-8b3a-2e0378c370e2'
p1204
asI1486935209
(lp1205
S'd88ca6f5-c567-4172-9ad8-2fdf4e94d6ed'
p1206
asI1486914730
(lp1207
S'cd59eb49-0976-4dda-8c9a-83f1a2e460c8'
p1208
asI1486902446
(lp1209
S'9d209467-fb9f-44b2-be9d-5bd8c26a904e'
p1210
asI1486920221
(lp1211
S'17b1d3cc-1038-46bb-943e-e47897a7a966'
p1212
asI1486902450
(lp1213
S'b8b54458-ddb0-4dc2-94b3-397d27cf6fe6'
p1214
asI1486931123
(lp1215
S'926eedd8-d0e3-4b97-b119-f82ae496a983'
p1216
asI1486871753
(lp1217
S'94d2af6d-6274-464a-a0c9-6eb7ef22b859'
p1218
asI1486915444
(lp1219
S'0f303922-d2cd-4ffc-b322-d80ff31ed73a'
p1220
asI1486886074
(lp1221
S'bb1c5c21-1007-4163-a17d-b1eb4d2541b8'
p1222
asI1486867645
(lp1223
S'd5462f45-ed13-4875-b69a-9511ff3d39e4'
p1224
asI1486867650
(lp1225
S'c2dddb71-a62c-43d4-bbc7-e5d206b203b0'
p1226
asI1486890180
(lp1227
S'62d4959f-995d-4757-8dd0-4aa055b4b651'
p1228
asI1486931145
(lp1229
S'53a7d110-6851-40c2-bbe3-2318f5f60ed0'
p1230
asI1486935242
(lp1231
S'f83b999f-3605-4429-8c6e-da13bdc8cd8d'
p1232
asI1486925005
(lp1233
S'43f71bb1-3c48-4e00-9bf0-c5e3c70af673'
p1234
asI1486905299
(lp1235
S'28531689-b0ef-42f7-9b67-53154bd916ce'
p1236
asI1486933199
(lp1237
S'f0a3480d-bced-4f5b-8b0c-f16106932bb6'
p1238
asI1486929106
(lp1239
S'9f96fef2-57f6-4c6b-9304-5bcfded904e5'
p1240
asI1486884387
(lp1241
S'd07afcfc-ae12-4dab-a1fa-a607318287e0'
p1242
asI1486859471
(lp1243
S'e4e21238-3a23-4e9c-986a-cd0e1268cb67'
p1244
asI1486920926
(lp1245
S'd4f05371-2e8e-4aad-bf26-f84110f597bd'
p1246
asI1486914784
(lp1247
S'635fafff-d459-46c5-8e29-46dd97c4b5bd'
p1248
asI1486899408
(lp1249
S'47767339-b01e-4fd9-9a96-8357b072d4aa'
p1250
asI1486937314
(lp1251
S'51aaf6c5-3d71-43e3-ae8c-f07e0192b0ed'
p1252
asI1486931171
(lp1253
S'75c3ddf7-3d9c-4025-8897-4a2cc2ae6453'
p1254
asI1486927076
(lp1255
S'9e751115-8776-404a-aa43-d62a8b6a17b4'
p1256
asI1486884069
(lp1257
S'adb4e4b2-de8f-4ddc-b1ca-778b81a1f83c'
p1258
asI1486904188
(lp1259
S'f9dde5bd-fec1-4bee-bac1-a7d3a44bfb6f'
p1260
asI1486875886
(lp1261
S'f285ec1b-ea8a-48c8-b677-1d796cbf3130'
p1262
asI1486904565
(lp1263
S'bf46cf39-a8c0-42ff-b664-d5448e783fa9'
p1264
asI1486872788
(lp1265
S'20b1faf6-657b-483a-be0b-d012b0f25ef2'
p1266
asI1486918909
(lp1267
S'b3e73af8-81d0-4c3f-8429-65b8e1aed3c7'
p1268
asI1486929151
(lp1269
S'dcc05020-5048-4bf0-9381-bc9deed9517a'
p1270
asI1486880640
(lp1271
S'49cec7dc-20b8-4b12-902e-713670d3619e'
p1272
asI1486939394
(lp1273
S'6a3c3890-8653-44ba-bbee-bc5319c89b39'
p1274
asI1486877956
(lp1275
S'57a0d0fd-b33b-4343-8399-7d959e824a61'
p1276
asI1486875910
(lp1277
S'6c89c1f4-cec3-49f7-9713-72243420fc74'
p1278
asI1486926721
(lp1279
S'93fb21a3-ecad-4794-8074-9795c51aa32e'
p1280
asI1486896392
(lp1281
S'b3fee15f-dabb-4483-abb5-0a055dad4db7'
p1282
asI1486882348
(lp1283
S'0f725302-ea89-4254-9d6c-df4d5d746e0f'
p1284
asI1486916874
(lp1285
S'103ffebe-b96c-4e73-92cf-fe1617eaffa4'
p1286
asI1486881667
(lp1287
S'6a5041a5-7b47-446a-b538-9f03dd944da5'
p1288
asI1486904597
(lp1289
S'7dd2bcfa-0d26-4a23-ac5a-03ef4005852c'
p1290
asI1486910744
(lp1291
S'eebb6a61-82af-4b3e-9975-6fb5cc307d61'
p1292
asI1486882076
(lp1293
S'd2cc3436-6fe0-4f92-96fd-1499922a4bcb'
p1294
asI1486923994
(lp1295
S'6d484103-392d-419c-9a51-1e43a53f1b78'
p1296
asI1486859552
(lp1297
S'17a3c09d-2703-4b56-9547-5e5917a18b7e'
p1298
asI1486875939
(lp1299
S'7648a6a5-3acd-4a77-994c-df4d0e3a4a05'
p1300
asI1486875941
(lp1301
S'7da3083c-9116-4323-9aa0-fca0860af698'
p1302
asI1486932504
(lp1303
S'bc097994-c853-436c-ac51-1693875ad149'
p1304
asI1486914857
(lp1305
S'6014582e-9f35-458d-bfbb-ee252c393c67'
p1306
asI1486927147
(lp1307
S'72f575ac-a69a-4bbc-96f6-8c75bcb2d083'
p1308
asI1486921004
(lp1309
S'cb105c1f-0e04-4ae7-a847-fcd2b4a7bede'
p1310
asI1486917853
(lp1311
S'fef76584-7131-457b-b1d5-09e558ea7d27'
p1312
asI1486908720
(lp1313
S'48282eeb-abf6-4661-ac95-6cdb0d2ad13b'
p1314
asI1486942771
(lp1315
S'edfa6469-0e5c-4ba7-8431-6747b77e6512'
p1316
asI1486871861
(lp1317
S'95ad4b90-fcf7-4ffa-a8f2-75a9bd1b5d87'
p1318
asI1486884150
(lp1319
S'a309384c-52c9-4aaf-a9b0-537e85493b31'
p1320
asI1486872457
(lp1321
S'212ede41-826d-46d5-b5ad-ffe8884ef5c4'
p1322
asI1486896442
(lp1323
S'f25b0b1e-5b07-44ee-81a9-785a9ece8df2'
p1324
asI1486938335
(lp1325
S'58c48f51-7f1e-45c9-87ff-1abb475a5fb7'
p1326
asI1486878012
(lp1327
S'436a3977-6b25-43ec-b837-51215bb5b15c'
p1328
asI1486898400
(lp1329
S'946efe3b-9d58-4bdc-be32-f8fce56882e2'
p1330
asI1486869811
(lp1331
S'c3beeded-3e76-4830-b80e-73c41cf2bd69'
p1332
asI1486888260
(lp1333
S'1bcf2384-372f-4b5b-b3ca-0326257e9c79'
p1334
asI1486937333
(lp1335
S'82b8615f-9381-40df-8d39-507d90c56060'
p1336
asI1486907276
(lp1337
S'7c1d42f8-17cd-4369-8f68-b0d8adb1c0a1'
p1338
asI1486908746
(lp1339
S'3bad4a1c-d61d-4021-8aa7-eb0ed7ec522d'
p1340
asI1486904651
(lp1341
S'98e54ffd-5f36-4126-94ec-c3d7501d166e'
p1342
asI1486911301
(lp1343
S'35487b91-9903-4228-92be-495ae8904d62'
p1344
asI1486914893
(lp1345
S'2e35756f-df71-48ca-9e02-bbeaa0910d53'
p1346
asI1486875985
(lp1347
S'86df9c49-ba7e-47aa-b3e6-4fd2c8de4a47'
p1348
asI1486927187
(lp1349
S'1f31603b-9b60-47d6-820d-c9a4350ebc23'
p1350
asI1486871892
(lp1351
S'a0a6d478-e1a1-4444-8406-2c3f384f4f05'
p1352
asI1486882134
(lp1353
S'e5b71d86-7848-48ec-ae8a-0fa899f3556c'
p1354
asI1486933339
(lp1355
S'be7ec382-7f3a-476b-bb8e-eba585f69078'
p1356
asI1486916957
(lp1357
S'c9353b6d-b2bc-456b-9685-ac4a26c206e3'
p1358
asI1486871903
(lp1359
S'e5616cfb-00a3-460b-bb36-277d8dd0aad7'
p1360
asI1486861037
(lp1361
S'283103dc-229b-494e-bff3-1e71e3f6e362'
p1362
asI1486890341
(lp1363
S'ec2cce2a-e7a1-475d-a699-b8698bd16ea7'
p1364
asI1486867815
(lp1365
S'c8614b17-814d-4943-b7c4-2658f34747ac'
p1366
asI1486900584
(lp1367
S'b93896e6-4025-427e-9706-177388921f44'
p1368
asI1486880107
(lp1369
S'67cdba25-3da3-48d0-b8fb-e9f9a0a02a0e'
p1370
asI1486937452
(lp1371
S'4a1ac0f3-7474-4457-8f91-a038a663389e'
p1372
asI1486863727
(lp1373
S'd2002566-4120-4f1e-b318-4e3b2c2348b8'
p1374
asI1486941552
(lp1375
S'fe135318-3dc9-4767-915a-f2702ad029af'
p1376
asI1486884209
(lp1377
S'5c3387bd-3c94-481a-a098-7557db401920'
p1378
asI1486941554
(lp1379
S'9fd8364d-5dc0-4a5a-8604-709ec01f62d5'
p1380
asI1486871924
(lp1381
S'bd75fc9f-9832-4d50-80c8-906bf05c6841'
p1382
asI1486869877
(lp1383
S'eef6a2b8-26ef-42bb-b05e-baea94c7dcc5'
p1384
asI1486904694
(lp1385
S'd01e1963-a49d-4fb3-a0cb-dc0280a09368'
p1386
asI1486904695
(lp1387
S'1894ade8-7ffd-4309-85c4-8336065551ee'
p1388
asI1486902649
(lp1389
S'f0685317-8ea3-4170-afec-29582d79ac5f'
p1390
asI1486900602
(lp1391
S'e25f9bd5-1dad-457c-8ee7-c529a5bd2258'
p1392
asI1486929275
(lp1393
S'300b2b29-2d6b-4e60-8017-da9c72e339a2'
p1394
asI1486894460
(lp1395
S'f92b9b01-0d8f-4e0d-8c55-dbf1c6c2f9f6'
p1396
asI1486908799
(lp1397
S'd72e7ed6-f2b3-4a16-89ed-2f82dd8e8ff4'
p1398
asI1486890368
(lp1399
S'33dd2ab5-8db3-4536-95d6-66a430426249'
p1400
asI1486902658
(lp1401
S'b13edcea-8851-4cea-afa0-b5630d60b879'
p1402
asI1486888323
(lp1403
S'6169b046-ecef-4538-ab6a-4d625cb17390'
p1404
asI1486886806
(lp1405
S'fc2243a9-426a-4214-8365-a742aa6d1d49'
p1406
asI1486914299
(lp1407
S'ad241233-776a-481b-acca-c9c9bc48a33f'
p1408
asI1486911506
(lp1409
S'b1204056-c164-4875-b442-125354b73968'
p1410
asI1486917002
(lp1411
S'56e86def-a7fd-4555-8a77-cbdba2459e73'
p1412
asI1486896523
(lp1413
S'11afa0bf-aacd-4a8c-bb4f-adc0371a3e86'
p1414
asI1486936642
(lp1415
S'3e586adc-fa67-483d-be5c-f9ffb9fae798'
p1416
asI1486916793
(lp1417
S'8a26e133-3d1c-477a-9d31-6a6c34e88ce1'
p1418
asI1486861711
(lp1419
S'7e76ee0c-8d44-40e2-a01a-e38033559195'
p1420
asI1486859666
(lp1421
S'79c7d0e9-835b-434a-bbcb-827eab62fb24'
p1422
asI1486925379
(lp1423
S'3c20105c-512f-4ab4-8f07-ad12dd7f859f'
p1424
asI1486902930
(lp1425
S'bf1b34c8-6fe0-4675-becf-5fca9ce780e3'
p1426
asI1486867863
(lp1427
S'89eee70e-1c94-48a4-a96b-658f0b153b9f'
p1428
asI1486900633
(lp1429
S'678b3861-5f3a-4e11-8825-a5f0c7ea2262'
p1430
asI1486880300
(lp1431
S'1e54905c-d0ff-4e0d-99b9-9be122f9c1cb'
p1432
asI1486921118
(lp1433
S'65ea741f-018a-49d1-b88c-729d8e9fab31'
p1434
asI1486898592
(lp1435
S'c687c8e8-37d5-4b38-9ceb-e8fe286f873a'
p1436
asI1486874864
(lp1437
S'ed495d14-c194-40c1-9a20-b1cfcab4bc58'
p1438
asI1486910883
(lp1439
S'68dec528-22c5-473b-a732-20473afdff76'
p1440
asI1486900647
(lp1441
S'6472c9a3-fe99-44b1-8785-39cabaa9cd95'
p1442
asI1486881692
(lp1443
S'b9a004dc-3064-48c6-9e6a-0e7ae08bb9ba'
p1444
asI1486927275
(lp1445
S'b5da10aa-7c81-48a1-a5b2-0e40b3a71afb'
p1446
asI1486921132
(lp1447
S'8f1d5808-8085-4b74-ae46-a8f5b888a48f'
p1448
asI1486867885
(lp1449
S'd6d29905-b48b-4a2f-88d1-e5d32eba6ad9'
p1450
asI1486935471
(lp1451
S'e4c1e7f9-d585-4dfa-966b-1fc94a311a43'
p1452
asI1486914994
(lp1453
S'0c3cbb6a-1016-40c3-87b0-76a1e37ce975'
p1454
asI1486890420
(lp1455
S'45b0be31-5fd2-4165-90b7-3a4b3e8dae72'
p1456
asI1486888373
(lp1457
S'eee60522-703f-491e-800c-f760826166ab'
p1458
asI1486863798
(lp1459
S'f0ed9567-1413-4da2-a488-6218e481f9ea'
p1460
asI1486890424
(lp1461
S'fb9a586f-73fd-4485-9fea-6675d492ef4d'
p1462
asI1486925245
(lp1463
S'378c6cc1-1515-4d80-8321-600e7f4bcd63'
p1464
asI1486930054
(lp1465
S'15ec6f75-7f4a-400d-8b3f-462fadafdf03'
p1466
asI1486877941
(lp1467
S'b6ad2cf4-c159-4ce7-b0fe-e79c884f10ce'
p1468
asI1486927296
(lp1469
S'565f2ffe-6f9e-440b-a9c9-ced1b97a8643'
p1470
asI1486863810
(lp1471
S'69d4fda5-12a5-4985-b371-cd897894d492'
p1472
asI1486915013
(lp1473
S'5b5e6814-a5e3-4ec9-b691-b035fc0378bc'
p1474
asI1486943688
(lp1475
S'8bf84dc3-64ec-4e01-8f2d-497abd69e0f9'
p1476
asI1486884297
(lp1477
S'8eb4625f-12b2-4c35-8808-8a215ec33dba'
p1478
asI1486919116
(lp1479
S'd607ff30-aa17-43ba-84c5-4175ace2fcf7'
p1480
asI1486900688
(lp1481
S'ef0d84d1-689d-4e7c-b894-a87b3e1974a7'
p1482
asI1486868639
(lp1483
S'99fe2347-ab88-4fa7-891d-cfb792e2b179'
p1484
asI1486879651
(lp1485
S'35892aab-fa06-40f2-b5ed-f6d4bd172bc8'
p1486
asI1486917076
(lp1487
S'18ea21c2-ba68-45b3-a2f1-40286b846355'
p1488
asI1486939606
(lp1489
S'96d660ba-c8a5-4dd3-b7d7-ff0d0fbed529'
p1490
asI1486934283
(lp1491
S'15296bec-1599-4de8-8368-f46f2f4c7325'
p1492
asI1486885114
(lp1493
S'b0e9dc95-9670-49d3-9b1d-70d1e342e9f0'
p1494
asI1486874075
(lp1495
S'6ee3bd85-6b4e-4b08-88ff-cfc0cb55a39f'
p1496
asI1486909979
(lp1497
S'e940094e-a9eb-481c-a666-e9bdc59bad3b'
p1498
asI1486908896
(lp1499
S'a80cd259-8f90-4ee3-a1e3-173ec8e88dfc'
p1500
asI1486888417
(lp1501
S'b3f0fd2f-6ccd-4c27-9740-a5b8518dc019'
p1502
asI1486939618
(lp1503
S'44d761bc-eeb7-4d17-8a3e-1b2d9f338b82'
p1504
asI1486902756
(lp1505
S'5bfb6b84-3fb6-4527-be07-9b5a844e7b87'
p1506
asI1486927333
(lp1507
S'c02c3d54-b3fb-479d-a0f0-277a74b2ad88'
p1508
asI1486927123
(lp1509
S'6f8464a7-a52d-4525-9621-a13f749351e3'
p1510
asI1486890474
(lp1511
S'705e35e8-3b7d-483e-adf3-f3e232bbd8fb'
p1512
asI1486925294
(lp1513
S'8f8e5fe2-7e8f-4d85-bccd-949d15e64331'
p1514
asI1486935535
(lp1515
S'2107ef27-c04d-4ae6-94cd-74044b10d9a0'
p1516
asI1486884336
(lp1517
S'0a2a7642-64fd-4865-8f89-a0bd4efd9990'
p1518
asI1486902769
(lp1519
S'305cbf77-d3ff-4433-9d7c-62372e5c25d6'
p1520
asI1486927346
(lp1521
S'a299d6e9-872f-4b5a-b73a-9ecbb1cc1cfe'
p1522
asI1486870003
(lp1523
S'8e8650ae-2494-4887-936c-e29818459aa8'
p1524
asI1486915063
(lp1525
S'1f6b3c0f-42d0-452f-8af3-1ff053321493'
p1526
asI1486915064
(lp1527
S'aec353b9-956f-4e7c-8a92-1176a8b29a7e'
p1528
asI1486943737
(lp1529
S'a2010fe2-c24a-496d-bcd9-c078fa585ba2'
p1530
asI1486870385
(lp1531
S'2e5d8571-2087-43eb-823f-eccffcaa98f3'
p1532
asI1486935553
(lp1533
S'57ce8056-40de-46c0-aee4-edd43be550ea'
p1534
asI1486867970
(lp1535
S'83b0e060-d659-4c93-bcb4-bfdd7993397f'
p1536
asI1486910979
(lp1537
S'a57d9f38-dd98-436f-8991-af6402be85bb'
p1538
asI1486898692
(lp1539
S'acfb196d-3ceb-4312-b404-397b4cc54576'
p1540
asI1486867180
(lp1541
S'8fe301b5-eaab-4e9d-9d8e-28725936ddb2'
p1542
asI1486876929
(lp1543
S'a2e1bdf2-e3ab-47ca-808a-cec5faee4d8c'
p1544
asI1486906888
(lp1545
S'a350ecb1-4770-4652-9807-70d7ba3bd006'
p1546
asI1486915940
(lp1547
S'b48c5007-aed9-4f96-bc08-897ffe00b096'
p1548
asI1486870029
(lp1549
S'9edbade0-cc80-4ecc-96b7-2a2eb8eda608'
p1550
asI1486921230
(lp1551
S'1adc9f9f-9f4c-41c7-89d7-69c3ad3424a9'
p1552
asI1486931471
(lp1553
S'3b95a307-522c-4eab-a1f1-7693e06e9500'
p1554
asI1486894608
(lp1555
S'47363e6a-520d-4897-8b76-52c5d84e56ab'
p1556
asI1486921233
(lp1557
S'c4f3dcef-1ef9-4dbf-a99e-3a3d0b1abd39'
p1558
asI1486865938
(lp1559
S'f5c67d92-3160-427e-8460-d123c2873ef2'
p1560
asI1486859798
(lp1561
S'5928ebb9-2df1-4b52-8e76-38897b7068e5'
p1562
asI1486910999
(lp1563
S'f1e8d68e-bd01-441f-b24d-8be716c20f9b'
p1564
asI1486915097
(lp1565
S'bf494b77-e3b2-4392-a878-2e0f3c55fedf'
p1566
asI1486941722
(lp1567
S'a510a17c-5fcc-46c5-a35b-be373b18cb75'
p1568
asI1486915099
(lp1569
S'd0aa34e6-ad54-4543-b7b8-51e9b8d81e21'
p1570
asI1486937630
(lp1571
S'f893add3-ef1d-407e-91ac-b367d5933332'
p1572
asI1486925344
(lp1573
S'54203d4c-3371-4342-9c02-46bc444960b4'
p1574
asI1486903216
(lp1575
S'05513664-e213-42d3-855a-774d9b5404c8'
p1576
asI1486941731
(lp1577
S'24580add-3c39-4ec7-9fac-8341df43e831'
p1578
asI1486885126
(lp1579
S'5148c8a1-87cf-46fd-9cde-c67f8daf0f84'
p1580
asI1486898658
(lp1581
S'2b505575-6cc8-4e43-bc23-2c5f8468f317'
p1582
asI1486910044
(lp1583
S'899f6195-f48d-47f2-9840-ee70d7c91033'
p1584
asI1486937644
(lp1585
S'3c417750-6f81-493e-a2c7-35491321b9a7'
p1586
asI1486941742
(lp1587
S'39d6a37a-3230-4ed1-be73-d329e012592a'
p1588
asI1486880305
(lp1589
S'e58b83de-44f8-4b6a-a2db-c73b2f3bd9ce'
p1590
asI1486902836
(lp1591
S'24f3a1ed-ef46-4952-ad5d-b84f57d32071'
p1592
asI1486884405
(lp1593
S'efff7369-49ef-4a50-b474-051ac01c9b52'
p1594
asI1486861726
(lp1595
S'036403cb-d8c8-4883-968a-90bcd39c6d7f'
p1596
asI1486894648
(lp1597
S'992ad288-5b9d-481b-9728-964c9dee9fb1'
p1598
asI1486865977
(lp1599
S'4bf10312-92a5-4601-a00f-4ac5872199ca'
p1600
asI1486894653
(lp1601
S'14486b59-2954-406d-80d4-0653ec370cbb'
p1602
asI1486917184
(lp1603
S'f05c8745-f3b9-4d2d-bb6e-2b39ea5b0473'
p1604
asI1486874177
(lp1605
S'5963365c-bc48-424a-a3c2-131519b76271'
p1606
asI1486872131
(lp1607
S'4eae06fb-33bd-4d17-8eec-3869e6d32e4b'
p1608
asI1486935621
(lp1609
S'bde6fe2f-476b-4035-918d-14760d4d8b64'
p1610
asI1486929505
(lp1611
S'ed0f6c32-bdc9-42be-a3bc-e3971307704a'
p1612
asI1486888523
(lp1613
S'553dac28-105c-4113-8578-958a4d8f187b'
p1614
asI1486931532
(lp1615
S'3e64b7b4-09ab-4cae-8684-a89b65b44945'
p1616
asI1486939727
(lp1617
S'11deff48-dbc5-42bc-b75e-5687d00d01e9'
p1618
asI1486902864
(lp1619
S'f333272b-c9ab-4a90-a752-6f5fdccc7368'
p1620
asI1486923347
(lp1621
S'4374ca2f-57f9-4818-b6dd-e8fbb6195ed1'
p1622
asI1486884445
(lp1623
S'5bd7fea7-f009-40a0-8f40-083e12d45bd7'
p1624
asI1486874208
(lp1625
S'45bf00a8-b156-403b-b3d6-cba1e6634655'
p1626
asI1486902881
(lp1627
S'38d5f16d-ef83-4cd1-a7e6-83d4023fc149'
p1628
asI1486892642
(lp1629
S'65725749-f9e5-4c55-b852-05e21e6dccef'
p1630
asI1486916539
(lp1631
S'ae70b5b6-63d0-4fc6-9f50-e29007941e1b'
p1632
asI1486919271
(lp1633
S'794c9a63-f17d-4f64-bf84-2ec62361e23f'
p1634
asI1486898793
(lp1635
S'1f38cd42-14ee-4eeb-9aa7-a30705c603c5'
p1636
asI1486886512
(lp1637
S'48889f93-8fb0-44d6-b8ac-7b900a56153c'
p1638
asI1486890609
(lp1639
S'3d942795-394d-4f06-8d49-18d2a09f2fc7'
p1640
asI1486906995
(lp1641
S'b28eb343-593b-4eed-814f-3051c8460c42'
p1642
asI1486913142
(lp1643
S'3be5b7ac-3247-470e-a614-56c0648a3688'
p1644
asI1486911095
(lp1645
S'd0dc6222-9192-492a-9391-8905a60b7b93'
p1646
asI1486917240
(lp1647
S'3695d67f-5107-4eb5-b4e5-240a09c14041'
p1648
asI1486898810
(lp1649
S'ae839c3c-35a4-4424-ba5d-682e5a373a4c'
p1650
asI1486872190
(lp1651
S'2e9b648e-b40b-4dbf-9f99-bf0c4a17a8d1'
p1652
asI1486886527
(lp1653
S'9f36091c-a978-4c11-a3d0-2b41447786ce'
p1654
asI1486870464
(lp1655
S'daefb464-6433-4f75-bc13-24dd6a3cab50'
p1656
asI1486902914
(lp1657
S'd932c54a-e8c9-4a44-88d6-eeffcf76342a'
p1658
asI1486935685
(lp1659
S'f985fb9c-88ee-4171-a5db-828126de397e'
p1660
asI1486884366
(lp1661
S'f732e803-2b6f-4a36-8445-ca13574cc337'
p1662
asI1486861961
(lp1663
S'd2c604cb-e335-473c-9d36-2fdaa7fdbe6e'
p1664
asI1486896782
(lp1665
S'29f6fe27-525b-46ca-9912-6a03b90806c0'
p1666
asI1486880399
(lp1667
S'75daa687-ae33-41a0-9f58-c186099d5e1a'
p1668
asI1486886712
(lp1669
S'ffd665d5-a5be-4e11-b17e-bb155ce29a68'
p1670
asI1486904978
(lp1671
S'8722abda-e853-4cb5-84c3-88b1cef6edd7'
p1672
asI1486874260
(lp1673
S'7cacfb05-729d-4c8b-8ad6-7c68cfe9fcf3'
p1674
asI1486907693
(lp1675
S'a31e9177-adb3-4d69-b704-d0e2b7b432f6'
p1676
asI1486864798
(lp1677
S'2364e49b-c97b-43d1-b70e-d987e4848352'
p1678
asI1486880407
(lp1679
S'fd36a3ab-2af8-4cca-bcfe-86eea8cbe2f0'
p1680
asI1486931908
(lp1681
S'd2ff952e-df4c-44d2-8113-ef2a813c5bd6'
p1682
asI1486904989
(lp1683
S'7f9a38ce-2005-4d09-8e77-a507179633c1'
p1684
asI1486915233
(lp1685
S'd2c31b0e-2377-4ba4-b876-d098bdf744ca'
p1686
asI1486943908
(lp1687
S'6d304364-a4d7-41da-9c65-626fe1a00a3e'
p1688
asI1486941863
(lp1689
S'81116313-d1f7-4294-9d4c-1309169dc1b7'
p1690
asI1486863503
(lp1691
S'aa693969-f105-47c0-b13a-fa444b490ef5'
p1692
asI1486941469
(lp1693
S'4c1697bd-2e50-40d8-b66f-6c67656fec2e'
p1694
asI1486907057
(lp1695
S'f543d4fd-18a8-4849-8c34-8ddf13c36ed2'
p1696
asI1486927538
(lp1697
S'23feb444-99b0-48ce-9c6d-65e816e64ae8'
p1698
asI1486862003
(lp1699
S'2770e5ce-2aa4-417c-8a79-b8779698ac7a'
p1700
asI1486939829
(lp1701
S'5f9b90fe-3016-47c4-8510-e343a3e8b58a'
p1702
asI1486911159
(lp1703
S'a83fc5d5-8e25-4844-9480-9746fad1394b'
p1704
asI1486939833
(lp1705
S'5eda9e9b-506f-410f-89fd-39d733a31be8'
p1706
asI1486870203
(lp1707
S'2ebcc4d7-de4c-4550-ad06-35799b467864'
p1708
asI1486864330
(lp1709
S'95776f34-21c5-48ad-a0ba-4bfc13813509'
p1710
asI1486917313
(lp1711
S'811c70e1-6f64-426c-8e5c-f574bbde9b65'
p1712
asI1486896835
(lp1713
S'08cba6c8-2920-46a7-b3d6-4c39b97571f4'
p1714
asI1486907077
(lp1715
S'0b5eb1a3-d9e8-4ae4-8b2b-b01b067337f0'
p1716
asI1486866380
(lp1717
S'd13f3cf5-408d-4442-b7b0-15c748b0c88d'
p1718
asI1486937805
(lp1719
S'7adc4e3c-e365-4c4a-8054-d20c7918e906'
p1720
asI1486917333
(lp1721
S'7501ca14-b280-4b5f-ad5d-22387e974c37'
p1722
asI1486921430
(lp1723
S'b80bf56c-92d6-4797-822f-0b4add3ab1d8'
p1724
asI1486880472
(lp1725
S'b84e6e87-8b58-4b87-8d22-1d739e17bf99'
p1726
asI1486936698
(lp1727
S'f2af6bda-9883-445b-9ea5-6ce48527ce8f'
p1728
asI1486868191
(lp1729
S'b8cd220d-382b-4e15-a120-e3e65aa08175'
p1730
asI1486862049
(lp1731
S'ece28384-8832-4d80-9238-7f2e2047a51a'
p1732
asI1486862051
(lp1733
S'24526284-ae48-4d1b-9a8b-ebc470197ce3'
p1734
asI1486909158
(lp1735
S'a96e4597-cfc5-4a3b-9bc5-510bc625df15'
p1736
asI1486917359
(lp1737
S'9fc121ba-ff67-464c-8185-553966d1ab90'
p1738
asI1486872304
(lp1739
S'f8591dc6-8bab-4f4b-aa5b-79e2c6f27e90'
p1740
asI1486943986
(lp1741
S'4b9a188c-1c93-4297-a283-c2fc0119debc'
p1742
asI1486867411
(lp1743
S'def955e3-c4f1-4d33-9bab-5936b7444db4'
p1744
asI1486868213
(lp1745
S'a4879a30-d951-4e87-9220-1eaf6857fd5b'
p1746
asI1486912809
(lp1747
S'2967ea99-6d48-44de-a724-cd2f630f7568'
p1748
asI1486931924
(lp1749
S'585459ef-3eb4-46a1-9b78-a4a7ca9ca01a'
p1750
asI1486900987
(lp1751
S'c94cfdb1-e7cb-4e9a-accc-fe481df09708'
p1752
asI1486860031
(lp1753
S'bf6bc7e4-b2c7-4b7e-8070-9d975a1cf367'
p1754
asI1486864128
(lp1755
S'2651cf27-27be-48cd-8466-2ea8d110d315'
p1756
asI1486900993
(lp1757
S'b6f016d3-10c3-431c-a566-f55072da46aa'
p1758
asI1486927618
(lp1759
S'f3307b02-0a33-4d01-98b6-43e3c30405a3'
p1760
asI1486934998
(lp1761
S'1af94577-722c-4c05-8f1b-5a9de83c4bfc'
p1762
asI1486880518
(lp1763
S'741384b4-e431-4f46-9809-077ab02f7230'
p1764
asI1486894855
(lp1765
S'27d9fa95-85f6-4f64-a97e-fb142211b31f'
p1766
asI1486860042
(lp1767
S'dccbd251-061c-4635-8f70-0857361f1321'
p1768
asI1486931723
(lp1769
S'1c0690cd-081f-4d06-8250-845daad7901d'
p1770
asI1486895405
(lp1771
S'1e1857be-7916-4b2b-9d80-867ebfbc486b'
p1772
asI1486898961
(lp1773
S'dacfc796-4725-4a2e-81f9-9ea1c5959d29'
p1774
asI1486860050
(lp1775
S'4397cad9-b74f-4210-99e3-92d85b79c1dd'
p1776
asI1486901011
(lp1777
S'837cfdf6-f7aa-4af0-b740-f3e41cdfaa2a'
p1778
asI1486860052
(lp1779
S'73563e24-affa-4fa4-b9e4-c6d1a95ea6c1'
p1780
asI1486860055
(lp1781
S'7f057145-e61e-41a8-a9e3-055d2b293b2f'
p1782
asI1486901287
(lp1783
S'3c7d1f54-1171-4e5e-9ca8-4570e5c76444'
p1784
asI1486937882
(lp1785
S'a6bcbfe0-ea08-49c0-89da-88c1d350d031'
p1786
asI1486901019
(lp1787
S'329d7d32-25d7-4ef5-8990-ea74b93d86c1'
p1788
asI1486937884
(lp1789
S'1879a474-01f8-4254-8981-94836db3f005'
p1790
asI1486935843
(lp1791
S'c9a65ed1-c9e0-47fe-b271-e8f48f9d49ee'
p1792
asI1486878501
(lp1793
S'fdc2bf7a-1227-45e3-9b5f-6afd8b90dd14'
p1794
asI1486927659
(lp1795
S'4907bc26-f408-47e2-a277-2814610f7c49'
p1796
asI1486866220
(lp1797
S'd16d02e9-b42c-4706-a9dd-b900daa7f28e'
p1798
asI1486882605
(lp1799
S'b2fdcf6a-616e-41e3-81c2-fd69337f6870'
p1800
aS'658aa825-803a-4058-9e16-b78b1c061b20'
p1801
asI1486874414
(lp1802
S'5504ea7e-7ee8-4811-a4cc-26f459fe6eb9'
p1803
asI1486886704
(lp1804
S'b936d311-3fb2-482a-8327-b6515b1bfb97'
p1805
asI1486873805
(lp1806
S'543be7ef-c579-4c1e-849e-17edab20b5a1'
p1807
asI1486935347
(lp1808
S'3cd44d54-c773-44d4-b9da-036ae613d15b'
p1809
asI1486903092
(lp1810
S'e5e070ed-d984-4d8e-8faf-bb340353223b'
p1811
asI1486894046
(lp1812
S'de8cbf9b-0dc2-440d-91bf-5f5046728ddc'
p1813
asI1486870328
(lp1814
S'e5f08a30-c4d9-48ba-b04a-45d2f81babce'
p1815
asI1486878521
(lp1816
S'3912788f-b948-45a0-a4ef-e488320058a6'
p1817
asI1486929725
(lp1818
S'a0b54a06-006b-49b3-81b8-b569d067b71b'
p1819
asI1486933824
(lp1820
S'cf95a39d-e3d6-4e8f-bdd9-b32f2db2b16f'
p1821
asI1486903107
(lp1822
S'8c6d3e17-eb76-43cd-a32e-5db0eee78388'
p1823
asI1486915396
(lp1824
S'8bbdfd64-5b89-487a-aa36-ba26093ea493'
p1825
asI1486933302
(lp1826
S'5f6d3ad1-0199-4450-b902-adb06398f33b'
p1827
asI1486908385
(lp1828
S'd0b409b7-ce6b-432e-8b62-e7ce7dba5f2c'
p1829
asI1486864207
(lp1830
S'6f635f33-9596-46ff-a681-d18ad2e7e406'
p1831
asI1486921556
(lp1832
S'fc812a0d-da15-48a1-8eb7-3ef4b74de764'
p1833
asI1486932659
(lp1834
S'05d6a891-bbe8-467d-aaa9-78d60d79518a'
p1835
asI1486937943
(lp1836
S'7454ecd9-12ab-4af8-be25-ff5105ef33b9'
p1837
asI1486862172
(lp1838
S'5bf24f6a-5062-4e6f-a8d5-e34f4e764317'
p1839
asI1486921566
(lp1840
S'244d5c9c-271a-4b46-9048-90e0fcbb7d38'
p1841
asI1486885468
(lp1842
S'f6643b50-c0a2-41a7-81dc-5cd3bb6d9a30'
p1843
asI1486933857
(lp1844
S'29d9b002-e280-4cfd-98f3-28cd853f4a69'
p1845
asI1486884706
(lp1846
S'24fd2c7d-9fa9-4580-a948-f6cb9619dcd1'
p1847
asI1486896998
(lp1848
S'f7ee76bb-cb65-4df1-91b5-1707a99113ec'
p1849
asI1486922625
(lp1850
S'2215587e-1492-4c1f-9729-ecb26e04e574'
p1851
asI1486886762
(lp1852
S'f10ae33c-b511-430a-8d84-ae0f3aab6ffd'
p1853
asI1486931821
(lp1854
S'95cacd49-1b6a-450d-965d-45ce7bd69f5e'
p1855
asI1486938429
(lp1856
S'e9f3237a-960c-4c2c-b1a2-50ccc1db74b2'
p1857
asI1486870384
(lp1858
S'1d10e96d-3f2d-4dd6-9708-d29617a7e7c8'
p1859
asI1486866289
(lp1860
S'46b2b405-d3d9-4ffc-b10b-93fe11ffd1d3'
p1861
asI1486890868
(lp1862
S'41a8a0c8-4d17-421d-9d3e-1da53ef42c00'
p1863
asI1486933877
(lp1864
S'cd8a2f30-601d-48af-841a-63c6763ae498'
p1865
asI1486941231
(lp1866
S'f5850806-0a66-48a1-9280-9afd157dfca5'
p1867
asI1486905212
(lp1868
S'085e8f6c-58f6-4745-aafe-dcdf7ad194c9'
p1869
asI1486929789
(lp1870
S'db842203-e956-440c-8719-c945838b9f18'
p1871
asI1486937982
(lp1872
S'70ed776c-b6bd-4879-b4c4-acc7092a2734'
p1873
asI1486872448
(lp1874
S'e7de4a33-f700-4274-8596-eb3ec7f3f794'
p1875
asI1486872449
(lp1876
S'd307c8f2-98af-441b-9a70-728a686e736c'
p1877
asI1486909314
(lp1878
S'6cb4f89c-c71b-4873-9b4f-f00c3b247f36'
p1879
asI1486878595
(lp1880
S'a97b464f-79fa-4fee-b31c-b89a9b3d8a2b'
p1881
asI1486927752
(lp1882
S'b48bcf97-99f1-4aef-9eef-4eb542ae6362'
p1883
asI1486864265
(lp1884
S'e629d696-8cd7-4edf-a1c6-2297fcb45022'
p1885
asI1486862220
(lp1886
S'a19d3458-7c5e-40b7-a315-a7201a6cf870'
p1887
asI1486874081
(lp1888
S'2291d13f-7a71-4ed0-9392-8e3f791a3012'
p1889
asI1486874516
(lp1890
S'2ca73823-1af8-4bfb-bbae-c54b06e9463d'
p1891
asI1486878613
(lp1892
S'2943762b-6ec8-4dc8-b430-040cc3eac666'
p1893
asI1486935958
(lp1894
S'ee01c2f0-7698-483e-8ccf-02681e8e12fc'
p1895
asI1486877337
(lp1896
S'0a0503ff-2307-4498-a940-9cb750a5a9de'
p1897
asI1486903193
(lp1898
S'0181b06f-a27e-4c2d-9aad-354ca5181f79'
p1899
asI1486872477
(lp1900
S'36499ac5-8334-4c0c-b1bb-e9964ab4564d'
p1901
asI1486864291
(lp1902
S'f8e827ab-c738-4a71-9d6f-63542ec6933a'
p1903
asI1486884772
(lp1904
S'64e16105-9a0b-4c7d-9142-3f262d8703ca'
p1905
asI1486897061
(lp1906
S'ba43a8bf-0e85-4ceb-81e3-6b593a10d459'
p1907
asI1486939812
(lp1908
S'0afddc66-7bfa-4ec0-8f4c-8ea1faceea29'
p1909
asI1486920689
(lp1910
S'054d1073-0dba-4337-8044-d61ff0a5cca2'
p1911
asI1486913451
(lp1912
S'0afa58c0-438e-443a-b869-65802358f38c'
p1913
asI1486919596
(lp1914
S'5e4938af-d3c3-454a-aecf-9eff7b4a7159'
p1915
asI1486923696
(lp1916
S'7e5a55ac-aa8d-4589-9b5e-4b4e65ba47b1'
p1917
asI1486923700
(lp1918
S'f6de1dfd-e85e-4aa1-a003-3a1cb2c6b1d4'
p1919
asI1486901175
(lp1920
S'49683811-e9e3-4379-9718-394e6b3e9fb9'
p1921
asI1486905279
(lp1922
S'a6aeca68-8aca-4e52-be4c-a8e5b5c69af2'
p1923
asI1486890944
(lp1924
S'd3dd7b40-550c-4ce0-b315-133e681cd5fe'
p1925
asI1486917963
(lp1926
S'892a2254-8468-49ad-9b42-29cab2580a9e'
p1927
asI1486866372
(lp1928
S'11161b24-52d9-4f53-9818-e783ca5cf3fc'
p1929
asI1486899142
(lp1930
S'803d7e77-ea5d-4993-94fd-eb5fdfffaa66'
p1931
asI1486938055
(lp1932
S'f3e37481-9236-420b-b39b-1f341dd1583f'
p1933
asI1486884809
(lp1934
S'cdd67a81-de84-4351-ae61-439891d433dc'
p1935
asI1486870474
(lp1936
S'266842c6-801f-4653-9978-718a0e4aa6dc'
p1937
asI1486888908
(lp1938
S'2db6e230-e94d-4dc4-a05f-b294ef445d62'
p1939
asI1486880717
(lp1940
S'03cd3446-6d9f-42f6-93cd-5b34812aeddb'
p1941
asI1486915539
(lp1942
S'd09900b1-fde1-4904-92f6-c9a42c67cb3c'
p1943
asI1486929876
(lp1944
S'f94da47c-4655-4ed6-8089-618891dabad3'
p1945
asI1486892879
(lp1946
S'2d70d8eb-87d9-4a68-9c00-a237fed5841c'
p1947
asI1486933975
(lp1948
S'3b8b1608-ed09-4a36-9e35-fbad2fb9d930'
p1949
asI1486907044
(lp1950
S'896cc16e-fba7-4dfc-9648-7336d53304b0'
p1951
asI1486909402
(lp1952
S'd54b06c1-8833-4e73-bfdc-b842df254d4c'
p1953
asI1486860252
(lp1954
S'2300dd9b-68fa-4ba9-9a73-71d359faf92c'
p1955
asI1486874591
(lp1956
S'2cc1536b-0007-4570-a2f7-277c745849ac'
p1957
asI1486944225
(lp1958
S'c1019c28-adf1-4bab-aa10-caf855c873dc'
p1959
asI1486881858
(lp1960
S'8c4c1ff0-e198-4d11-9bb7-088273069ecd'
p1961
asI1486866405
(lp1962
S'fdbaca90-3e46-4b5e-a096-e15af366bb4d'
p1963
asI1486919654
(lp1964
S'c2181c0e-462b-4ca6-9502-ab847cbf64c5'
p1965
asI1486925801
(lp1966
S'72b85fd6-5d09-4228-883b-9d7e452d1e2e'
p1967
asI1486924617
(lp1968
S'5ee2ce86-a9c2-4aae-ace9-d99e33a2b81c'
p1969
asI1486888944
(lp1970
S'd343ef7b-cd89-4540-9d52-d0580bfac0ba'
p1971
asI1486889640
(lp1972
S'698706fb-a8f9-469d-8685-1925d182d507'
p1973
asI1486917618
(lp1974
S'24b58793-8aed-4c0a-964c-e3c305dacb48'
p1975
asI1486939475
(lp1976
S'7af0e3a5-690d-4cf1-90d0-76c10e9633fd'
p1977
asI1486928027
(lp1978
S'd25fad3e-5156-4203-9b73-51c26cc2a4db'
p1979
asI1486923765
(lp1980
S'1801891e-a316-439e-b6aa-5e22677305f0'
p1981
asI1486938102
(lp1982
S'92836e89-9c76-4fd2-877b-8d8b8e1f8e7c'
p1983
asI1486936056
(lp1984
S'ec0dde0a-2c37-4a9f-804e-70ee52784fbc'
p1985
asI1486899193
(lp1986
S'11a797d1-be94-4c8b-a7c8-898c6fe13a8f'
p1987
asI1486923770
(lp1988
S'c6c68931-354a-43d3-87a6-7938d0b92326'
p1989
asI1486869503
(lp1990
S'01c48978-4c44-4d5a-b8b3-9365f766431c'
p1991
asI1486880764
(lp1992
S'7ba05996-b09f-4ef8-bab7-9b13be7b5ceb'
p1993
asI1486884863
(lp1994
S'b59783f5-cb2b-454f-8c37-463e6a930150'
p1995
as.