(dp0
I1487025950
(lp1
S'cae1b3b3-8ddb-452a-98e5-9315b1a93b2f'
p2
aS'41d9ae09-b773-409b-9a1e-499f122fbd33'
p3
aS'a5381870-3a6a-4ec8-bb95-8b7f29143609'
p4
aS'bef8e96c-5fce-495b-9253-8e50e5cc49ec'
p5
aS'f595a515-6ef4-4e7d-aba1-2009ef1cb992'
p6
aS'de47a423-e586-496f-813c-e06d141318dc'
p7
aS'7139deb8-e7f8-4003-93b3-07263104fc6f'
p8
aS'ed8c989d-c5e7-41e2-8cb1-10b9ff32e8c0'
p9
aS'405b95ef-e8cd-4ea0-a2c7-083c50ecfde1'
p10
aS'08368f1d-d83c-4bd4-8707-ab1a4167c7d0'
p11
aS'8333ba57-e3f4-4385-b0c9-5f2b770a6160'
p12
aS'09877a88-c41e-449f-9e51-806ddbe69bbb'
p13
aS'58b3578d-5dc9-46cf-a4a3-43734b8ff469'
p14
aS'844ac7d8-e042-4372-b767-5540d571f7a8'
p15
aS'eb7e1b0c-06f9-49a9-8833-d55ea9a1cbc9'
p16
aS'48f567ac-e4dd-4175-a176-d9d9c1fb4da2'
p17
aS'27251062-a1bb-4a8d-94a1-fea365643850'
p18
aS'cd4ae89e-757c-4134-94c7-50b81c89a06c'
p19
aS'b741575f-9ef9-4780-80bf-25a8ac034818'
p20
aS'34d9f093-8414-4084-9b95-c9b21c3bfea5'
p21
aS'd3c2790f-b845-4abc-b64e-9fd0a3f3a973'
p22
aS'8b3efe9b-b7ef-4f08-989a-307f03e3ae63'
p23
aS'b9730e96-8b9c-4970-b30e-4da451788fa0'
p24
aS'34e97559-2574-402c-a162-f54f738dd73f'
p25
aS'49b2433e-3d2d-477e-bb8a-202f2ed012cb'
p26
aS'5b54e0aa-afe6-4326-ab87-5baf0c78bf56'
p27
aS'e2070f84-3d5e-47bd-b060-882e068d8ce8'
p28
aS'399e579c-a3db-45e4-bf28-e6cdf153a1b1'
p29
aS'3b6b03f3-bf58-472b-b9b3-344c0aef9bc0'
p30
aS'ba6e4f5e-9dec-47a7-97ad-8410c935c347'
p31
aS'aada3fcb-9a7b-439a-aea9-10960a096856'
p32
aS'c5ae2498-77a0-4856-a0a6-4bb8e32b5276'
p33
aS'b3178368-c705-472d-9e0d-ad2857b8393f'
p34
aS'659aef89-8353-46cd-a09f-e2f985488bb3'
p35
aS'1a41373d-f924-4c60-ace3-88393f1aa481'
p36
aS'df8c1863-17a6-46f2-bfa8-c4896b1549ab'
p37
aS'8c443ecc-8693-43e4-bf41-3acb7d37b6bf'
p38
aS'61b63be8-6829-4b4c-978c-fdb720d0d97f'
p39
aS'4c543585-1f07-496f-9396-c816fb1229bb'
p40
aS'8702cf3c-169a-4de4-958c-2830ff96b1b0'
p41
aS'5426c8a0-7c22-4966-8d0e-4841202bccc2'
p42
aS'e2ee01b8-1cb4-4556-8bc9-e8912bedd988'
p43
aS'ed2bcf80-60e9-484d-afcb-9ffbc168bd30'
p44
aS'd3ca9c10-24f0-4126-9a2b-1cb58bae3d51'
p45
aS'd263c9ca-ffc0-40e0-9baf-168d4635e202'
p46
aS'6b0b8292-a164-4d8f-8a19-4810be3f56b0'
p47
aS'8908c60f-ae03-4d5d-8ea7-302707088316'
p48
aS'230bafde-9820-4652-8ada-320dcdbc07d2'
p49
aS'9a450ef8-08de-43da-b167-ca624b201d06'
p50
aS'ae41767b-bac7-4b15-af9a-186f5e2ff905'
p51
aS'f0d30f57-5f2d-47ba-a9fc-cd4a9d618223'
p52
aS'ccda6fc3-f711-4ef5-8d6e-27c3d602d05b'
p53
aS'a7b3f0f8-d517-45d6-9e41-a2f65372b7cf'
p54
aS'a9c81c2b-cc4a-4e1b-b8c4-7775f0781b0a'
p55
aS'fa36c682-2675-4ba7-b1ce-1d77aae7febc'
p56
aS'a78de792-c2b9-4183-b112-e40174ab1a8a'
p57
aS'72307030-1c82-4225-b39c-998ecdcafd24'
p58
aS'a9ddef73-8c9e-4071-ac47-6605ce3105b5'
p59
aS'22f1b52c-aaf7-41a0-bd42-982ebc6d2a19'
p60
aS'4c60d09e-f1e3-4adc-93c0-b6fe13ccd54e'
p61
aS'8fc80524-0f1a-4403-ba0e-15dd5b5e0d76'
p62
aS'2cad2a8b-7b30-4572-8698-84d45b9048df'
p63
aS'2b90a5a1-8461-4c15-99d1-f651a9bfeb09'
p64
aS'646f2d79-6123-42aa-a651-47619e124142'
p65
aS'af8fb1e6-fc92-4bf0-88f1-4f5134e76f68'
p66
aS'555ca38b-fee7-42c9-953b-27c9b83fe526'
p67
aS'f095bb90-e055-430e-9557-fe22b59294b3'
p68
aS'9b2597bb-f35b-460b-8932-fe3207c330d7'
p69
aS'09e24248-9ce8-4962-966e-887bf861ca7d'
p70
aS'181a3025-0ac6-4baf-acb1-2f5554ecf8c7'
p71
aS'b496dc69-abc0-4a5c-963a-0d336a118707'
p72
aS'cb7a2e3b-2c4a-45ac-a63f-1c786c60c229'
p73
aS'825bc4f4-8d70-48f4-95ba-4f456c3a8e03'
p74
aS'51b3fcc9-81cf-4571-852a-a03befb627dc'
p75
aS'374f48b8-9a00-4e19-9eeb-2c56d8052887'
p76
aS'e0074c8f-0dbd-420e-989a-f04902382b83'
p77
aS'b2796073-ead9-4f4d-af27-e807ebdd3aa8'
p78
aS'27b08c62-283a-4f57-b9f4-c856ba9bcb8c'
p79
aS'5f6e91b2-8dc4-483e-86d1-344af28cad1b'
p80
aS'f942d7c6-945a-4ecc-88e5-7cc6d102233f'
p81
aS'6b9d4775-a86a-4724-9d62-47917cc12c78'
p82
aS'cdc71d1b-5d86-41b0-817a-771cb7306183'
p83
aS'3ffc1cea-960c-45ab-a47d-480998251a06'
p84
aS'7220ce3a-2012-45d9-87ec-8500f11cb4dc'
p85
aS'90b521c7-95fe-4985-ac10-f150c0d2c5ad'
p86
aS'6fa2e483-0536-4be8-992a-b592d34c9114'
p87
aS'144d2e16-6971-4347-af0c-cc342c2ffcda'
p88
aS'9c45c3eb-235f-4d42-97c5-e7edbed9f916'
p89
aS'5859f3ce-b933-4766-aac2-c84a9f5eb2f7'
p90
aS'abc17138-fa2b-4ec5-88be-3730953edd5e'
p91
aS'f86f385a-bf8e-4253-92e1-e6196628438e'
p92
aS'8a4a500b-25e9-4659-a3c9-7c66d0288464'
p93
aS'cad45bce-b6d3-4ce2-ac6d-7d963b574e6b'
p94
aS'940bbf55-5fca-4d14-96ac-9410aaef2fc5'
p95
aS'361d2a47-53af-4729-8936-bc63611d27d2'
p96
aS'dea3b861-ffb7-47cc-b66f-1c3dba4b77b2'
p97
aS'52e201f3-8e26-4598-b218-4636d9c300f6'
p98
aS'8252f13c-620c-4117-a927-506b039b5e7c'
p99
aS'7929c281-bae0-4d35-8bc0-8128a1c36d84'
p100
aS'b32b92cd-24f8-4a7a-8715-0214da925fa7'
p101
aS'037548ab-cab7-4097-9e71-3b353d6c4661'
p102
aS'a9eee031-6876-44df-834d-610571f51f83'
p103
aS'ad9b7e16-8990-4165-a400-961be844cf1e'
p104
aS'304c4a1c-4f95-4ba1-bea4-68207d9d5aa1'
p105
aS'd2a64a17-25f2-478b-9b60-2115c80d00c3'
p106
aS'92d9b464-8b74-4cd2-aed7-df910223da84'
p107
aS'0e7a8f4e-ca5b-4373-aa29-3cc82acff0c9'
p108
aS'2a22a36b-e3bc-44bf-bdf9-721a0218afd2'
p109
aS'bd89cedb-01e5-417d-94d6-97c7b9c3471c'
p110
aS'66490715-0bcf-4cee-abaf-217604be4821'
p111
aS'0565c699-5b37-4484-ad81-bd72996af514'
p112
aS'963bc85a-e468-42bb-aaae-3e852d68486f'
p113
aS'55eb0402-8c32-4ca7-a3e2-c910ab3f71f8'
p114
aS'eadc772a-ccf9-4d99-ae83-4dd4d73623c8'
p115
aS'45e06545-a70b-40e2-95fb-020aeeaad010'
p116
aS'21b228eb-c710-4ec4-bafd-2d377c2d1085'
p117
aS'9826d5b0-80fc-4159-9d9a-4cc95877bc20'
p118
aS'089e3cda-f0e5-42a7-86b3-1a0f1988497e'
p119
aS'51bc4709-0a76-48cb-9b2d-d03187b75d35'
p120
aS'30eb7303-643d-47b5-a6ba-261ee6433c64'
p121
aS'99879f60-9b02-419a-bbb5-a83e553b0fd8'
p122
aS'972c9d9e-6406-4bdf-91de-1545e49ec9aa'
p123
aS'1087fd69-bbe7-4221-b02b-1a50b4c0c95b'
p124
aS'8acc533b-85b7-4317-8cc5-cdf2cecda271'
p125
aS'd2604bdb-b80c-442b-aa4b-e5d88b248e2f'
p126
aS'3eaee245-8b06-4f88-883f-b78a0c64ec6b'
p127
aS'c40cdaa7-6b31-4576-b72e-58c90a9af120'
p128
aS'7617af8b-f85e-4514-8228-4339e86da76a'
p129
aS'ad25f880-a27f-4b46-bdf1-cd7520b43117'
p130
aS'e2ade431-d494-47ce-b1a3-7248e725b5df'
p131
aS'e5e61f2f-404d-48aa-b71d-fca00cba6983'
p132
aS'08d63f58-1098-4234-849b-1909ac0f4cd5'
p133
aS'4386fdc4-51f4-410f-a3a1-84c155c355b3'
p134
aS'644777ad-7478-4e6d-8975-4d2934be0844'
p135
aS'545ae004-899e-4480-aea2-09afd76704bb'
p136
aS'95761639-4f75-4845-b5af-ed2218d1c8b9'
p137
aS'050d17ec-f3a3-47a5-bbb2-f6a8f231867f'
p138
aS'0f963a36-2bb5-4a1b-ab36-aa43dbe71f41'
p139
aS'67bb1bd0-9a81-4520-9a07-584591c76f23'
p140
aS'58d400f5-89d9-4f7b-8c60-778fb23a4e45'
p141
aS'dc2785bd-b56b-4b41-a3fd-701054d3ae65'
p142
aS'55dfff72-cf71-4421-9c3a-9f9d51ee710f'
p143
aS'15ee0c1f-6cb9-4970-9399-74e40046c1d4'
p144
aS'7c6fbb16-19ab-48d8-874b-adf476d4863e'
p145
aS'4fff0948-8228-4fa9-b84a-3fdb735625bb'
p146
aS'6799daa7-dc88-4857-aa74-66ba8cbfb118'
p147
aS'f7f7bc6e-1f04-4ab5-ae5d-3f67e5cec7cc'
p148
aS'19c0ac05-e402-40dc-8559-9094aed5e190'
p149
aS'85598d2a-db95-4528-b283-90f641c082a1'
p150
aS'a676f908-34d1-40b1-940d-a4007b970f40'
p151
aS'3bb6e21c-a4d8-46a5-b19f-21ee440c3d42'
p152
aS'30367329-8764-4858-b07e-b7c788b788b4'
p153
aS'0396275d-b675-4cfe-9f09-01935434fda9'
p154
aS'240a1517-eefd-486f-bfb0-94ff33cb407d'
p155
aS'7029d00b-2357-4dd5-85ce-2b05d93affe2'
p156
aS'164d43f8-5a2d-4fb8-b9f6-654f769eed0b'
p157
aS'bcd8eed2-d188-4daf-83ff-f8b3bfa02f00'
p158
aS'8c90081c-9db1-423d-90f0-4e42705c7954'
p159
aS'd7af3088-b70f-4cbd-b19e-73ca0125d6d3'
p160
aS'57d4e92a-d9f3-47c1-aa80-7a72c7fc6e1d'
p161
aS'32604d04-d694-4aff-ab67-ff83d9ef8477'
p162
aS'850e1331-ba06-4a17-8e50-e5aafbbc7aa6'
p163
aS'244e45cc-2b99-4eec-b811-4d0d0aa1b8df'
p164
aS'9e3f408f-086b-4beb-ab57-329433a9e77f'
p165
aS'87ca0c0f-8177-4a08-b435-62ad8a2073ef'
p166
aS'49cb2e5b-1203-4fae-8f7d-4126faaec480'
p167
aS'17497134-2a6b-47e1-b693-7c6abca90bb5'
p168
aS'7d64d9f5-8cf1-46a2-bd32-6925e11b26ca'
p169
aS'57f2b420-fe99-414a-a6de-bea2046b7288'
p170
aS'ca423259-15c6-4762-a52e-e90b47f78496'
p171
aS'54efbee6-0384-42a2-a9f2-56742584e476'
p172
aS'77740af3-32d4-424d-95c1-cd8422efb5e2'
p173
aS'acf6213b-883b-4ec1-a8fb-fd3a704e7075'
p174
aS'82a152ad-67a6-483c-bfb0-39d3566c5aaf'
p175
aS'bf85c28f-b42b-4dbb-883b-e784c02ff473'
p176
aS'8c114c7f-d0ee-46b1-8141-d1d2cf99f996'
p177
aS'c37584eb-e9e4-4558-8072-9387a95914cc'
p178
aS'e23b58ad-380c-4a7a-ad10-664118f07995'
p179
aS'193a7ce5-9902-4698-a6c2-917211ab8958'
p180
aS'4e856037-c5a9-4ee9-8f50-73381355431f'
p181
aS'425c230b-d940-4257-b7c6-2de3c0f9ade4'
p182
aS'4940b37d-ac5f-4c48-a0eb-8b9d2c97f77b'
p183
aS'0b669a05-1110-4db0-b4b0-12ae27b95b04'
p184
aS'ddec3b27-e09b-4e1e-a5d3-20eae2a26c02'
p185
aS'12dced84-0b3d-4ea7-8db8-c383342e89c1'
p186
aS'41dbed85-6a52-45d6-a307-7d433975d3b0'
p187
aS'be185608-98ed-465f-91a1-932570d2206d'
p188
aS'3d477ce5-abae-43c8-a25f-4881fdd59d3e'
p189
aS'adb57713-aa73-4634-a494-d7c2ef7d112e'
p190
aS'78e23a2f-a075-43bb-b66b-3f565a19c980'
p191
aS'9ca88e94-14ac-4a5a-b5d1-2666f950e8b0'
p192
aS'e7c5489a-1a4e-42a9-9ee3-452b118f86a1'
p193
aS'3162953a-f356-4d72-8fa4-428b639f138d'
p194
aS'6b1adf91-3401-4f8a-a218-6670ff56c49f'
p195
aS'84fb9e28-6c82-4e9e-96e7-dc6d8c6164c0'
p196
aS'bc82ed6c-ea9f-413a-a693-df0ced3ad4da'
p197
aS'3ac0a59b-53cb-4967-a0b2-31a8a4c1a573'
p198
aS'01baacf4-1133-4ad2-ae28-ef5b8e6910bd'
p199
aS'35c0393e-a92c-4686-ab32-746b15707e2c'
p200
aS'ce3e7692-7ba8-4c8a-be0c-6af2b166243e'
p201
aS'35a0fd07-3d58-47f6-9929-990e3341adbf'
p202
aS'f3a8245b-da40-4a2c-b643-ff8c4e340dc4'
p203
aS'f63342b4-e35f-4f09-9edc-d693f7d2bf98'
p204
aS'bdde89f6-7bfe-4c90-b92e-a922fcf8dd8e'
p205
aS'7055117a-e810-4c3e-a117-5ec0fc2d19e7'
p206
aS'506d3af4-4cf1-4e24-956c-67cfd56c9e4b'
p207
aS'6c7b4d1d-206f-42b9-aefb-f2139251b5ec'
p208
aS'8057ae43-8c4e-4b29-84f8-65421f4177cd'
p209
aS'76dd90c0-26a6-4057-b00c-3d0e3911dff7'
p210
aS'95dd07ed-ef10-41d9-8eb1-023a13b52a2d'
p211
aS'b0f12700-070d-4b98-af3d-ac1fe3934415'
p212
aS'd083ba80-4490-4f90-a365-97440e76d92e'
p213
aS'ed64472f-35cd-4359-b3af-173df44e2905'
p214
aS'9d9a19ef-561e-48bd-9fa4-06a623d42247'
p215
aS'facf1807-9663-4d16-ae4b-f88f193f44ce'
p216
aS'153beff0-347f-4bc7-bd19-f71fb95e3a7b'
p217
aS'9edb8855-47d3-41c9-9162-6779b5eecff4'
p218
aS'f4a6921b-3fe0-4134-ac63-3dc524425a8c'
p219
aS'89a1d022-49b6-4d7f-916f-ca67548affb7'
p220
aS'5842df31-29d5-4f09-a397-bdb43a773faa'
p221
aS'f857e1b1-2147-4cf4-bdb5-382486fd43e1'
p222
aS'2f71c37d-5509-4ac2-88fe-0303906bc4fb'
p223
aS'83487905-5499-4d69-b113-fc697c853b86'
p224
aS'f3aae328-2803-4be7-ad2b-601d4daf679d'
p225
aS'ec053cc1-4e53-45e7-adaa-545f666408f7'
p226
aS'21776eb7-c7f3-4ea9-997f-5f9fb03458c0'
p227
aS'c2d185a3-5b67-48c4-b208-5cbde1cf1c96'
p228
aS'90e13f15-7790-4af0-af54-3d878511e21f'
p229
aS'd70f876e-2390-42e9-ad9d-f1cc5dfc12a7'
p230
aS'76ae27da-e25b-433b-b82b-8658456dc20a'
p231
aS'fe6e383a-3b28-4195-8f3a-a5c83b33525f'
p232
aS'2d2ac775-8272-4573-97a8-21399dc4b33f'
p233
aS'41d66cb7-7775-4851-abcb-4527f3337269'
p234
aS'42ddf6eb-bf7d-4d8b-8416-6688179dde61'
p235
aS'69dbd730-73d2-46a3-a726-3146770689df'
p236
aS'b75f2262-a2f5-4d21-a66b-a1e2b1f31b85'
p237
aS'07c00185-7d36-43f6-87aa-403f3bc3b46f'
p238
aS'de3ef384-e19e-4ff0-a3ab-656b3427a66e'
p239
aS'e6c95371-2ac3-419a-9ee8-f16d62352676'
p240
aS'1d182abb-d3f1-4384-8165-f289780edc02'
p241
aS'e1621407-d5d6-4eb1-895b-1014c7c70c83'
p242
aS'5496c11d-4bf3-4b2f-9673-8dea890a517f'
p243
aS'7f5082a5-8d4c-4d7a-89c1-e30cc7df7226'
p244
aS'eddd2bec-ead7-4acf-a817-4184b8559afb'
p245
aS'8dbbc1db-1da7-42ad-a7d5-929f2af67c17'
p246
aS'8b272121-4ba5-49f5-ab9e-31a79dab0af6'
p247
aS'932bbe40-e2e9-4f84-ae8b-987e7bbe0d14'
p248
aS'32c91860-86f3-4662-b09a-d215ae387777'
p249
aS'8145e709-c6ce-49b4-8ab8-614147c59128'
p250
aS'316e59b9-0e64-4f06-8c88-cc0cae398894'
p251
aS'8510187e-1968-415a-be4b-56162be12a62'
p252
aS'aed4d824-5c3e-471b-a383-3b3fb88d25e6'
p253
aS'f164e586-0739-41de-9fff-acd066090f22'
p254
aS'e66510f4-c8f5-41aa-867e-0287c718b689'
p255
aS'1e0fc7ed-4b5c-4bea-be12-d6f07b1750c0'
p256
aS'9b144049-c12e-456f-894e-9f85374e5b28'
p257
aS'31ffca93-f4ae-4342-8c39-9c285b4049e7'
p258
aS'291e9009-6e35-4cb8-975c-e4513ee6f522'
p259
aS'e5f5c4ba-f620-4131-bf87-9c85ceee670d'
p260
aS'c5bd821b-57a5-4a2e-a1f1-b10a7ce1bc7d'
p261
aS'4a270de1-0ffc-4e6a-8e4c-146476c51d99'
p262
aS'ed0daefb-949b-46e7-9d70-dfea91bc3940'
p263
aS'8ec2e833-5d34-45f7-b832-1710ff5289ca'
p264
aS'1facb525-af1a-492f-b8a7-1a4ce291474e'
p265
aS'68a48ca4-67c4-4de7-8e7e-49b9dbea8a5c'
p266
asI1487025951
(lp267
S'5234f03d-0f9b-431e-adfa-a16312a7cba3'
p268
aS'cd5a52ae-3678-4ef0-ac97-8f8bffd6b677'
p269
aS'eeaab969-ee40-40a9-975a-2b8ccbc506f6'
p270
aS'e4f591b0-e777-4ba1-8fb0-f4b43f1fee5d'
p271
aS'72c13d5a-c79a-4813-bddb-ced9f8684ab9'
p272
aS'ccac9497-0cac-4292-902c-5acb4ecc0866'
p273
aS'da0cbe49-2734-4ec3-85aa-a26224b076b1'
p274
aS'213bea93-7631-4400-9d61-abc5a3879885'
p275
aS'720a02f3-547f-4467-9473-105d6aa8c540'
p276
aS'aad78db1-6023-4856-96f3-d0af5d42276d'
p277
aS'1d2441ca-129d-4a41-9bc3-a755b9db234a'
p278
aS'b60d8c72-7191-4a3f-9077-c714b8edb342'
p279
aS'75c24522-f7b1-4468-afc8-17de2589b0fe'
p280
aS'93ac4802-4cc9-43b4-bb2a-661806c64ae4'
p281
aS'ecb6c65f-12f4-4c10-8ad6-dc30c4539d11'
p282
aS'ad290123-955f-458f-8e3c-06e7b412c4c2'
p283
aS'17881d82-4d4b-4309-8bf4-b69c4dd69837'
p284
aS'1fa06c92-aad3-440e-aa3a-8339794c86e3'
p285
aS'b55579d1-b454-4261-9465-967637b00435'
p286
aS'0f9bff6d-f5a1-4a99-85b4-1427dcdbbac7'
p287
aS'fe02a917-c98d-49cb-8cd9-77a2bd6d4c72'
p288
aS'ad126f72-3a0e-461e-8daf-9ff432138a95'
p289
aS'7993ef16-8e58-45a4-aa27-9271998d3c26'
p290
aS'07f4cb4b-3483-49d2-b94e-899c5d8474ff'
p291
aS'4cf806f0-8ea6-4f9b-9429-3004db33fd78'
p292
aS'bb4069e9-a05e-4d04-a711-fdd2a9189726'
p293
aS'84ac7163-dbe9-4b4f-86c3-d7d648546d1a'
p294
aS'bc4fab14-d82f-4332-add7-849713a5573d'
p295
aS'88c25f22-8168-4997-8f61-dcd56ad8c4a1'
p296
aS'37936d5d-fd8d-4c15-a082-82c4cc0a28d3'
p297
aS'bbd16baa-bcf5-4ccd-8b95-55fe4bb723a0'
p298
aS'd4482c53-5829-49ed-9daa-39e9dc61d176'
p299
aS'0738a535-9d37-4020-aa7b-a06be542de9b'
p300
aS'5cee9410-ab68-4aa0-8a44-7dec88f0bec1'
p301
aS'79c351e9-0960-4b77-8e96-fac768de2ff2'
p302
aS'bf864b58-3eb1-4f8f-9183-82d4283f9bce'
p303
aS'9026d0f9-a1be-4c99-af33-ab3c962d7ccf'
p304
aS'd2e1b525-2193-47b9-b418-09893eca9702'
p305
aS'e229ca92-6ed2-4cac-a6d0-b07af2a6f949'
p306
aS'63ce21d1-90fd-4684-bec5-63bb6a2b2056'
p307
aS'f7389168-208f-4692-83f6-c4752298237f'
p308
aS'7e3efb8e-6d97-4796-ba69-b5b46ec9674a'
p309
aS'e1d1a6ad-5de7-4fcc-9bf9-74f8b8559950'
p310
aS'47ccce98-9309-4608-a20f-2ec5fc1754e8'
p311
aS'0bf795bf-4be9-4fe1-a31b-46e72a32c030'
p312
aS'6633dd2a-d970-4cbb-98de-34a8243e0cd8'
p313
aS'852f6443-b08f-430f-ab4e-f34a9ba424f2'
p314
aS'5cf72e4d-409c-4b97-8c41-b0d6ffa23f5f'
p315
aS'519be338-6264-414f-a55a-c2e51cbd6f84'
p316
aS'4f07b6a9-1168-479a-9f1e-6c60cf7a8e8f'
p317
aS'f6c0643a-ef01-47b6-8a24-cae2ceb36e37'
p318
aS'43327e9d-dd06-425e-aa23-7558aa1a71da'
p319
aS'5d0aa298-9b1e-4672-a3e2-9657362bf578'
p320
aS'8130a6d1-dc66-4b6e-b053-9594f2be9bed'
p321
aS'450cfc32-bd80-46d9-a47a-d5cf44d49c56'
p322
aS'494687a3-0765-4548-8f25-b17a027e4744'
p323
aS'ed95b3c6-40da-4c79-a75e-9cdcd7480a06'
p324
aS'8cb710c7-f76d-40aa-98fa-12eb43a218b9'
p325
aS'4222a654-12cb-4107-8cfc-07de47454eae'
p326
aS'1720ad40-8673-4cc4-90f4-d4102bfa286c'
p327
aS'9a31a606-64bc-44f5-9abb-1c9cdbc9ed46'
p328
aS'619a7c11-7586-4a3a-8b58-4ba7d624e59e'
p329
aS'f5e1a412-bf9d-4acf-bb96-9e9a47e1779c'
p330
aS'36cbcd4d-6125-4904-8b9c-0ebb2a0eec48'
p331
aS'88188774-40a4-4b3d-92c3-06f2e3a75154'
p332
aS'0c86d266-cb7a-48e6-9ca0-cbe1b648371b'
p333
aS'c19c9859-5d73-453e-aa23-68fd95693e38'
p334
aS'a168c302-bd22-4682-ace3-2abf24e334c6'
p335
aS'6002f12d-35c4-4087-9a9a-ceac0b3621eb'
p336
aS'c1ad183f-f0c4-4fb5-8635-f18d3213292c'
p337
aS'930103c2-b12f-4947-9137-1caf0fda8d83'
p338
aS'0990499b-f6a1-46de-9930-870dd74d940f'
p339
aS'6bdb89da-6859-4784-94b5-9f1a0c298d65'
p340
aS'd71a0bf1-b41e-411e-b981-b78723f451ac'
p341
aS'5aa20ab4-e079-4bf6-8a10-7d4b188100be'
p342
aS'5e3453f0-cd01-48ba-b577-d50eadedd8da'
p343
aS'1f060f81-1227-4436-b8a6-43488268ca6e'
p344
aS'b8f1e5c3-9ea7-47f7-b9e4-f609b18ae6e7'
p345
aS'366be3f8-71fa-4058-8123-9655a32fdcf6'
p346
aS'12233d56-e70d-421c-89ce-df1ec5aeb8a5'
p347
aS'0631df32-c984-4c14-a899-025c0d8aa605'
p348
aS'fcb74276-5517-447e-8602-2227716a17da'
p349
aS'10d7fa11-5a86-49e5-91e0-158a6a492ab3'
p350
aS'9d359e53-4f6a-465f-aae5-0a6dc25049f4'
p351
aS'9d23dce3-1a7b-44f9-9488-8285c8616fc8'
p352
aS'ecf595c5-5637-44b9-addf-79e3f5277910'
p353
aS'414c0710-f77a-4228-8ae2-6a96e3ab483d'
p354
aS'3a5f2619-c267-4da4-9479-5eeaa1240667'
p355
aS'c2129698-7b23-434f-87c5-6e8d4002b6e5'
p356
aS'216d06eb-b50e-43ab-97f6-3a8a425dd38d'
p357
aS'807edb0c-604e-42b2-b06a-82a4a265f9c2'
p358
aS'6e502f2f-1907-47a6-aa35-aabea626f42d'
p359
aS'a8e99671-0573-414e-8684-f1660eaf86df'
p360
aS'ba7715e2-aef9-4bbd-85e0-c99ed21fe9fe'
p361
aS'62ad8e13-360d-4eaa-9675-34265c4aa306'
p362
aS'3aa91a58-20c6-4296-8167-1c0153979d4b'
p363
aS'ce5e7531-5567-4223-8bac-c382f29039e3'
p364
aS'29b38a87-7f39-4ca6-8f7c-7495b613eb5d'
p365
aS'81926a82-c6a6-4b21-81d8-0b3ef76f8457'
p366
aS'1daa0b1d-7275-424a-8ef9-73c4cecbf779'
p367
aS'f3f33bfb-c38d-4b6c-a01f-3f95b5f68be2'
p368
aS'ec9f52f2-e904-4df8-9018-5016e919d417'
p369
aS'34d8a9f4-5698-4e4d-bb52-63eb65f4c59a'
p370
aS'af7b533b-7fae-45f0-9b2f-41ce07e4e9fd'
p371
aS'67aee852-8ab2-4a99-93a4-d6f270cae124'
p372
aS'cdde3763-9f64-4d3f-9434-9739d8a66f37'
p373
aS'42bea675-1f7d-4ed5-912f-45704c17c1bf'
p374
aS'9ff3d743-e591-486d-b253-74765d72d467'
p375
aS'a671d94e-05ce-4c68-a0ef-cb3c9df1cbe6'
p376
aS'cc07c882-3716-47ae-a07b-b6f0a3e7eb3b'
p377
aS'a6e661b0-30fe-4350-9709-6c139a02dcc5'
p378
aS'2fdeefa2-c6bf-408f-acb5-5fb1db0d0836'
p379
aS'6781bae3-857b-4743-b269-1512524cfd65'
p380
aS'cc5f3393-1813-4162-a18a-18ecd9a62319'
p381
aS'2bc23490-69c0-4eae-a06c-075c3e96984b'
p382
aS'390c68d2-c690-49ce-ac60-cf7b0aa819c1'
p383
aS'615f582b-ba13-4938-b952-77a4a690713c'
p384
aS'235840cf-2f3b-4fb6-87ff-010ef2c63c86'
p385
aS'd1625c58-eef1-4a1d-879f-380dadbe3c0d'
p386
aS'dc38d749-77e1-4ebf-915a-ab9e204822aa'
p387
aS'3db8b568-6b52-4c86-bed5-e9b47addc1b7'
p388
aS'5f2ff6e9-4ecf-487c-be9c-797f2dcc1b17'
p389
aS'590f8e97-7f11-4935-aa3e-11709131f5b3'
p390
aS'7ced440c-3fee-44f7-a172-0d28a8ee1ceb'
p391
aS'642e5097-4c0a-4ab5-94bd-f2eb2efe9fa2'
p392
aS'b5d766fe-7d11-46bb-aad5-99110e23be01'
p393
aS'fed4710e-d22a-4a4f-b1da-253d62250b5a'
p394
aS'fea9a4de-e233-4d63-a3a3-0e1f83fe5175'
p395
aS'2accf15a-2807-4d5e-8e74-a4aa1deaadb4'
p396
aS'84f19181-db47-4dcf-9025-1c45a3e4cf56'
p397
aS'7f00e323-b40d-4d82-9153-731706fbc430'
p398
aS'f8509bb5-88cf-411c-8b57-103899b0372a'
p399
aS'0407a248-6107-478e-bf3b-7ba0e4b306f7'
p400
aS'dfa924b8-e273-4079-a154-7f6b2850b2b9'
p401
aS'5593fb09-0f67-4180-81a8-e885d5398c29'
p402
aS'a007f679-61f9-4258-a3c4-b4155290d426'
p403
aS'03437859-41cc-4839-8054-7add93357f7b'
p404
aS'3390a1f2-0a83-4100-bf72-fcf98b004f78'
p405
aS'6132f130-1c99-496d-8de6-8419d35ef05d'
p406
aS'4e12e234-3048-4efe-8464-31db6a7572ec'
p407
aS'03bf28e3-bbf9-4d31-960d-47200043e0cf'
p408
aS'e0df7fc8-2bec-40cc-baef-27012e9c5f88'
p409
aS'29336c20-98e9-42c4-980e-cfd1b4e3a02e'
p410
aS'7f168e8d-5d38-4672-b90b-c6171d9cc496'
p411
aS'8d9135bf-22f3-41d7-8063-08799d2d5f18'
p412
aS'6ae8e24e-6053-4e84-b330-3ef7af0bad21'
p413
aS'3a808821-493b-4b88-bb65-faa5a85f4f5b'
p414
aS'7316ca92-b09e-4cd6-bf5d-d0578db16fcb'
p415
aS'fc1fb7b0-8f9b-46f5-a66b-4e27444cf73f'
p416
aS'bfec6364-0796-4cae-bd32-4fab1c65e80a'
p417
aS'ae58fb16-37d7-4dd6-bae2-8556cdbba538'
p418
aS'69d70480-bb50-4218-9765-d9d3c9714e0f'
p419
aS'a82b81e0-2d0c-48ce-a634-17f7a29a284e'
p420
aS'4d0a661e-642e-4383-be33-02ce2b82565d'
p421
aS'dc47de01-6ace-4647-a69c-b3ec0a573f55'
p422
aS'96477fc5-c03d-472f-9540-e93e507c6c1a'
p423
aS'ff5cf4dc-6f3a-4f98-9b22-51ecac402646'
p424
aS'c72783c3-0fe0-4ddf-b49a-489a9a68f666'
p425
aS'c314153e-fc41-4000-8ef5-caab8ed6dc70'
p426
aS'8b38a5e6-d0ae-4e57-b70e-da245fc43407'
p427
aS'07ffb918-8eaf-4edf-a75a-753cbda0b01e'
p428
aS'77db23f1-3af7-4b13-a57b-14a7b40d17aa'
p429
aS'e92f3571-d556-4b74-a91c-97b276e7b304'
p430
aS'e7e63240-5a46-4d6c-82a8-972b05f3c6ca'
p431
aS'87d93c5c-a11d-46f1-a6a5-6b23bef55213'
p432
aS'e92b9b8e-161d-4bd6-87bb-ab02c3155ecc'
p433
aS'1db18ff2-dfe3-41cb-8fef-a04fc5aaab90'
p434
aS'1c18db21-4672-4665-8ac6-9521647651d7'
p435
aS'425c7324-48e8-42d6-acfc-61fdc2410611'
p436
aS'a4febc8d-a40b-41ab-8ff4-b13a6eb35434'
p437
aS'9c2bb7d1-a636-4615-a98b-780cce3a0e3b'
p438
aS'b5886947-2a7f-4c7c-836b-3b9c6cee4007'
p439
aS'34a9739d-5e8b-43b3-afc1-7ab05744d813'
p440
aS'2421b7c3-7f87-4c6d-82cb-5b5bd0e41a77'
p441
aS'4be98d87-958c-4ad0-954e-ff2d73ce5dd3'
p442
aS'de4f83a0-c7f6-4906-811f-28c4d73935b3'
p443
aS'dcb9c620-c687-4cfb-b0dd-e562e59fadb1'
p444
aS'c1febadd-3da1-4537-a850-6bc4eac64e6c'
p445
aS'ea011470-8532-4803-a3df-99e5fef1fa5e'
p446
aS'1d2c8fdb-82fa-438a-a833-77f31b422d58'
p447
aS'2268110b-b9f2-43a0-9d35-30fd99c9922e'
p448
aS'8418119d-72ea-4ced-a38b-d129e08b1908'
p449
aS'895bd379-760e-439b-b5ad-e2d243434cc5'
p450
aS'2ed9a147-b995-46dc-b2f6-3c644fdf6750'
p451
aS'8581d16f-2bd8-4484-af9f-dc24bd4e8f09'
p452
aS'5da9b48a-634e-416c-9656-f162c672f074'
p453
aS'a777038f-6c04-4d96-b3cc-568f629869e4'
p454
aS'1a849380-5196-4afc-bf63-e28aab96eee9'
p455
aS'6376d9c1-1584-480a-bba0-43835d3e7074'
p456
aS'246bfcb1-74ce-42ac-b319-412a5aeb8cde'
p457
aS'11ca7816-3a67-4b5b-9380-38e26047282f'
p458
aS'21b8c11a-0114-486e-b762-34c8652fd076'
p459
aS'0b38e14a-402e-4e6f-b731-d19a2d13c6ea'
p460
aS'4abb5731-099d-4765-8c42-ccc4709cf69c'
p461
aS'bbc71256-a936-4dcd-bd88-a3df25395187'
p462
aS'3fa18f7d-155a-4a99-b865-6341312cefe3'
p463
aS'3e25e89d-98eb-494f-be67-583b4dc56296'
p464
aS'7ccaacd7-6043-4845-981f-588e2b15a899'
p465
aS'f046c76a-5b77-417b-96a3-e5e6e46b247b'
p466
aS'48d7b830-1751-489e-b027-4e16638750a6'
p467
aS'88e3aafd-f703-4a65-8496-8583d5ab35a3'
p468
aS'146ce084-a89f-40f3-8340-7bc9216dc342'
p469
aS'f624a876-4077-442b-a0f4-1305e1c82fcc'
p470
aS'd877ae0c-3e74-4125-8e85-acf2adc08476'
p471
aS'bb5fc516-391d-417f-8a5b-bfb92a9acdaa'
p472
aS'7c059aeb-c568-44af-9848-13bdf12a83e9'
p473
aS'abc26907-53ea-40d4-ab50-87aa389932c8'
p474
aS'0636dbd1-b47b-4e9c-b2bf-4948a6de7c20'
p475
aS'cb94bbee-53a9-4f7a-a41f-5b101dcc8c29'
p476
aS'783cd85a-7d20-4ef6-a91e-690ef3513f70'
p477
aS'372827dc-49ea-4389-be3e-5827a3ebb4c8'
p478
aS'089ef07b-a9dd-4d8f-b34f-c942caa814f6'
p479
aS'a9ad61bb-06a1-4733-b4ee-730596361af7'
p480
aS'3788c3a1-3023-4468-9774-84f80994e39b'
p481
aS'112b4d93-3e87-4d84-a8c3-c3ddcda86af1'
p482
aS'a57151d0-3770-4bb3-9535-dd4d11d7dc9c'
p483
aS'96ee80dc-c8fb-4d9e-8ec7-736c8bac3801'
p484
aS'447083e3-563f-444d-ad99-a2a36a12ca0b'
p485
aS'5c94920c-cbaa-49ca-a1cf-2929eb4749c2'
p486
aS'81e8243c-a9eb-4a1d-83df-2711c98eff56'
p487
aS'25ff5706-9592-4221-9264-4bce52c848a7'
p488
aS'cc1d78fa-6c07-4417-abb8-66336fc95439'
p489
aS'69abec77-a489-4fda-9e5a-9429a183f63c'
p490
aS'e33f3a44-e259-45cb-885f-cb284d42d86a'
p491
aS'fa57ad2c-db4d-448b-8c34-57bbf2534eea'
p492
aS'06cd6df1-bcc9-47a1-b7f7-2a3560cb65e4'
p493
aS'1b353e41-ccee-4e37-b5aa-e9eb041cce45'
p494
aS'5ca6208d-e5bb-49ad-9ce3-66febd536cf6'
p495
aS'fdf97ddd-4335-4e98-825e-122a968a3049'
p496
aS'1cb05780-50ef-4d90-807e-7fcd2f9a8d15'
p497
aS'a6c36bea-1cae-4450-8dd9-9054f160237b'
p498
aS'300c28cd-9717-4755-aeb6-2740dcd736fb'
p499
aS'7ebe399b-7729-4e52-8167-ee1fb2672d8f'
p500
aS'2c97c354-a95f-4eb9-a80b-e595d8f4f219'
p501
aS'24c768cb-838f-439d-b3c8-53dc73821c5d'
p502
as.