(dp0
I1487192262
(lp1
S'1b456c46-d44c-4f91-8d74-c723d1e8dccb'
p2
aS'0d8b3ff3-d835-4713-9580-db6fa2f8ad31'
p3
aS'573a6f80-5be5-404b-abe3-ec849b4ad7cd'
p4
aS'b0fbe11c-c93d-4d91-ab06-69912945313d'
p5
aS'6dd42955-399b-4bf0-a53c-760111fefff7'
p6
aS'1bb77331-d943-4b54-94b0-14d2c50d777a'
p7
aS'06a99d2b-3852-4e7d-bb73-5190767e757a'
p8
aS'8a413881-1631-431c-bd2e-175c89703c1b'
p9
aS'77e7fd09-02bb-45b5-9dcf-c5530182fd99'
p10
aS'ababa447-0020-4ab4-9a3d-299ec9867575'
p11
aS'b890db29-3f4c-4f47-9bd7-cb70981dda21'
p12
aS'a1055b16-1500-472a-82c3-2ea2fe504932'
p13
aS'6d5301e3-7b84-4fd5-a022-03d872b4efb8'
p14
aS'bdd38300-7b2c-4da1-a322-a2aa5ef8717a'
p15
aS'eed2ba66-6f63-4e4a-8bdd-c208af31a2ca'
p16
aS'222bda19-891d-47b3-84b1-54a4f62bdff8'
p17
aS'8514da73-9094-4e40-9cc9-ed308b25fddd'
p18
aS'4c8cc4ae-95a5-4bd2-b90f-299e2f5f2333'
p19
aS'bac80433-7baf-4897-8a59-95db84f0f2a3'
p20
aS'22c8ea9d-f8a1-40f5-806d-b93e2a1963f3'
p21
aS'8e29ab8b-afa6-4f39-afa0-d9bf9dcf19f8'
p22
aS'a0d10268-c43a-429d-9efa-eeaf09a99338'
p23
aS'665eace1-7105-4bcc-97fa-afa2a964bce1'
p24
aS'3cebdf11-caa6-4908-b40f-31fdd432b705'
p25
aS'd837a944-333c-4acf-8e9b-f90006414fe2'
p26
aS'c13638dd-a17e-47e5-adb2-c8a64e727f21'
p27
aS'8316626a-a069-4bf7-abdc-3cda94081d42'
p28
aS'53dddbfe-9259-4fcb-8d87-cdaa1134786d'
p29
aS'082e289f-b514-4aae-aa11-22855522315a'
p30
aS'f01d6644-d4dd-4573-bd85-d5090dd6dc4a'
p31
aS'f47c0dbe-9d37-43e4-8d4d-5eb325fc8dd2'
p32
aS'9691dcdf-9dd9-43b5-8cda-d78e2e91cca0'
p33
aS'01298015-1b44-489b-83f4-7e5249f9a43f'
p34
aS'ac9704e3-7a03-46d4-9045-82fc974aa747'
p35
aS'd5c9a49b-8094-47da-9a6a-e36bf14faf5a'
p36
aS'aaf6a6c6-4302-473a-b0e5-50f41919f912'
p37
aS'602e844e-f5a0-4892-81c3-6aa8ebd0b380'
p38
aS'bd0c11b0-31b4-46eb-8d96-e1ce60a2a0dd'
p39
aS'654fa665-a1c4-4d5d-91aa-60a5c05d7d18'
p40
aS'3ea42d0d-1b52-4e4f-9bfd-19ed4cf53a15'
p41
aS'3beb5f64-cb12-407e-a104-59ca60fa689e'
p42
aS'ad671435-a2a7-4082-bb14-fcf7ac889bc8'
p43
aS'45f28a68-e448-4b5b-ac37-137673a12f9c'
p44
aS'a9753ee6-9c22-42b0-9b88-68c0ac20e541'
p45
aS'99587c2d-b7ff-4eb9-b96c-3d03ee8bf0af'
p46
aS'78c0d786-1ee9-4044-8fcd-b7827cd8f0dc'
p47
aS'6dfd99cc-36c2-4f4d-ac3d-d934459b73cc'
p48
aS'168106c3-825a-40fc-8a58-6e666dc11c1b'
p49
aS'384131d4-5b0a-4f0e-9dc2-b01d716a2c3c'
p50
aS'a77198f2-52e2-425f-8db3-394cea6f1656'
p51
aS'ba9efb30-8656-4343-a7a2-79f24a48bafa'
p52
aS'4c5e29e8-19db-4160-b858-a447e29e7b57'
p53
aS'edffde79-d088-4cea-bb8b-c0518186d844'
p54
aS'e0428427-07b8-4b30-a53d-12d38185caef'
p55
aS'b76c9883-571d-4f18-a361-76436591488c'
p56
aS'0a111db8-b93d-4a44-bdd6-dd18017e00c6'
p57
aS'455e0772-84cf-45be-aa14-dc5d454958ca'
p58
aS'5162ab18-c214-4057-893b-a5f2e1b82d13'
p59
aS'87ded82f-3389-4097-afe4-38dde911c381'
p60
aS'228de739-16e9-45bc-819a-9df0f009d6b1'
p61
aS'e8c46057-b055-4a5d-b15e-30b052bfc794'
p62
aS'cd9bb1bb-2577-4d48-87f3-127426a70f1c'
p63
aS'0fda94de-07a5-437f-a78f-5ef2a9547cac'
p64
aS'dba7e006-ac2f-4c72-bb07-ec8931e39247'
p65
aS'f48c6bb7-fc31-48b4-ad08-5682dc06256b'
p66
aS'22de7ae8-4cea-4cbe-8795-c4f7fa5a6752'
p67
aS'c011bee1-ccda-4ceb-83a2-ebb2bfe7316f'
p68
aS'b434d5fa-5c03-46f4-b5d2-faea5ea005b5'
p69
aS'e87c220c-75eb-4574-b532-91dec0552ed7'
p70
aS'b2603468-b2d8-4490-8197-d6e525987c8e'
p71
aS'00bfc844-75a2-486b-80b3-d035182d4c08'
p72
aS'3b74024d-48a8-4894-89ba-ff19d852da23'
p73
aS'f1dc281c-1bf8-4db5-a18e-22a103e5197d'
p74
aS'b0fc4527-2221-4e1f-9595-80bce0147b10'
p75
aS'10e822fa-0f51-4f97-8003-aa5c587b6ca8'
p76
aS'6029debc-a713-4ce9-8d8d-724c6f087969'
p77
aS'923c3fcb-e1ad-4644-8d19-4ad50e41b02c'
p78
aS'7edd00bf-bbac-4b9c-a553-627a6c5d8f88'
p79
aS'a12fba58-1b50-4f04-bee0-cf32bb91c73e'
p80
aS'6af0831a-db47-4123-985e-cb68546eeb19'
p81
aS'22c2284f-5ddb-48a9-8483-4684869c7cdc'
p82
aS'f40c46c7-ab56-4f37-9269-c6341d8d217c'
p83
aS'3e01402d-f297-46f2-8057-c2ee4c400e13'
p84
aS'19e0bdb3-39b5-4dce-a3f6-be513e056c8f'
p85
aS'f7a30ce8-9bf2-4a94-b3ab-7f3e0156dfc3'
p86
aS'84d18bfc-321e-4594-8c0c-5803a0c45e10'
p87
aS'18648892-8c07-45b4-9195-617e12009724'
p88
aS'02174029-38c7-495d-b662-1ff91b0ad8cc'
p89
aS'be6f9d02-0d52-46e9-9b4c-59d9735c1201'
p90
aS'0a12b518-0664-4527-8e00-43ecb606f861'
p91
aS'388a9ef2-2096-4535-a879-a5dcd98ea24e'
p92
aS'5532382d-37d2-4d89-9f73-a83234723d87'
p93
aS'aef967a9-bb76-4e59-916a-54963ab92267'
p94
aS'83956804-e168-4a9d-ac56-6c6f1e58a562'
p95
aS'36708444-8316-4216-94d7-0f87a222c5ed'
p96
aS'172af680-3293-480c-ad28-89db6789fa35'
p97
aS'a9220846-c1ae-46d8-8bf3-6d3f2d591873'
p98
aS'731c2d49-e030-4e9d-ba1e-de61438688f0'
p99
aS'9d6a83da-51fc-47f6-81ad-ac3e6a069c04'
p100
aS'4232503c-e532-4153-8873-090b3aabaee2'
p101
aS'2d03f8d2-b2a0-4a09-b37a-7ca21092f62d'
p102
asI1487192263
(lp103
S'7f674caf-f04c-4d47-bc0d-474178cab2d5'
p104
aS'32b6c611-7725-4f17-a902-792bc4dfa7cd'
p105
aS'de20629c-67c6-43a2-8285-5279e944dfc4'
p106
aS'4b8f2005-5dc6-4f3e-b86e-7caa2be68007'
p107
aS'3a60c770-d50a-40fa-a9b8-1b5aabfcefba'
p108
aS'18b315e3-0941-4893-aed6-55f738e0ffeb'
p109
aS'2928a03a-ccb9-4b15-b5a0-a729b32ce6e7'
p110
aS'47639417-a398-45a6-8711-f1f2fc6e6dfd'
p111
aS'22ac7fbe-82fd-4ccb-ac4f-d7e2bbe3a30f'
p112
aS'e82fdd5e-a500-4130-a92e-a71371472cfe'
p113
aS'fbe75cd7-4233-4fa4-b2d0-3598071125a5'
p114
aS'd1d6ef69-ef38-478b-b9d7-adffc7294326'
p115
aS'86fe3194-f013-4f8a-a32b-7d02dc0faf13'
p116
aS'58673812-80eb-4c69-8b25-06ea0a2ac695'
p117
aS'95783e94-eda8-4d19-8593-0ed5c2cb3dce'
p118
aS'2f89bcd2-1ccd-4af7-9138-4d9ab921f8fc'
p119
aS'bc64d7f6-a8d3-41ec-a90f-cca971fa21d0'
p120
aS'95bd5edb-d035-48f5-b6fc-20ce603c9e01'
p121
aS'2e0f08e3-3d12-4ea0-be6f-677162a44bd7'
p122
aS'6b286ca5-b4c8-4fe6-a0ea-97c433f4baa6'
p123
aS'38428b10-d08f-4f14-86d9-dbd38aedc8b2'
p124
aS'dfe4b72f-70d8-4351-9908-639455390d48'
p125
aS'ba8d3991-ce61-4cf6-9302-b0e5c1175e55'
p126
aS'6c0ffb81-399b-4b14-8339-9dadb6e7e89b'
p127
aS'c5699abf-466b-4635-ac57-9ca04bac3e52'
p128
aS'9d9634aa-cc86-44bf-a3c5-61f9fe40cec6'
p129
aS'83b321d3-4c7a-4b6e-9f20-fc988e9d46e3'
p130
aS'd851d12b-f0fe-468f-ae53-41eea3241a10'
p131
aS'1568d4f7-c56b-4e06-b410-d7c7dd9ec3f4'
p132
aS'8f857a4d-d8f1-4b99-8b21-225ab68f06a0'
p133
aS'3aa5d2aa-57f4-404e-bffd-492088741b0f'
p134
aS'2667034b-c29f-4e89-abdc-6261b5820d5a'
p135
aS'5881f511-f81a-42c9-a330-662d9c275e3b'
p136
aS'cf6b611a-16ba-4e0a-892d-afd3d47d39ab'
p137
aS'f7240ffb-6f38-4101-947d-f21ec0c85023'
p138
aS'4ec47620-dce6-4102-b7e6-260afd2fcfb7'
p139
aS'e3080cd2-3af1-4b18-9c20-c9ae0ce40415'
p140
aS'c407ecee-cccc-4420-8874-a63de90cbb27'
p141
aS'43ebea37-3bbd-43aa-9afe-e2629ec7f023'
p142
aS'ee1c11e6-62fa-48e8-9fa1-7eaf34d24e83'
p143
aS'83c6ac63-dc7f-4a93-a2ae-bfd358f3cf73'
p144
aS'91cdb950-97c3-4550-93d7-515e0aebeb7d'
p145
aS'6d2311a0-f0f7-4727-9ae2-5729d49f716f'
p146
aS'78d7033a-c088-4348-a239-9d0d408506a0'
p147
aS'aad793d0-b1b0-4b23-bfe5-4c3271b0427d'
p148
aS'90f73e24-04cd-4c6d-bf69-f420b54b55a7'
p149
aS'6d1813f2-ea29-4ab5-bef3-c3143f238ac7'
p150
aS'278b3bd9-2c1a-49bf-a758-058ca3dacc70'
p151
aS'9d9d21c1-745a-4a5d-9165-a2ca4c8203a8'
p152
aS'e6e1c40e-7f30-4e91-8118-f0b1f48259d9'
p153
aS'0f3aa5bb-8159-4ac1-8a1b-b8dfc5cbafb0'
p154
aS'd8135b56-1f50-4296-a5e9-3bf96907f51b'
p155
aS'26276add-54fe-4d74-958e-ff4b37340ee7'
p156
aS'18b0f0f7-a37e-4daa-8725-a27a1ef18e9a'
p157
aS'b93ce612-a261-4249-9c68-9a66cf203530'
p158
aS'a50c9609-01cd-49c8-af2c-2732489b9656'
p159
aS'4ed28a22-4e98-4ae2-88eb-a4c300005ccc'
p160
aS'260b4ad2-cef9-4c8c-ab4a-7390d131e607'
p161
aS'3aa81233-0434-4857-9ddc-1d9006ef6e98'
p162
aS'0ad260ed-4c5f-4531-876b-6b492ba55142'
p163
aS'ecca2290-7b6a-4a13-9782-6c3c5ca509e2'
p164
aS'3c5311f3-e388-40d3-947a-3a95d838c19c'
p165
aS'766ff4f1-5614-418b-9331-2b513657b2a8'
p166
aS'8137a442-4d46-4106-b631-bdaa6276a82a'
p167
aS'0cd0c4b3-aedc-43c0-9473-0a38664d6dbd'
p168
aS'5c98cd68-7c5e-4f8c-8835-9a282c3bfb84'
p169
aS'e898b1f4-74e7-4e92-a2b6-42b04e7861ae'
p170
aS'fa6f9b2f-9222-4df1-abf9-2d48ee25e781'
p171
aS'a97ede36-0039-45ea-b3e5-a0fbba05cbc9'
p172
aS'685ff644-985e-4ecf-8f73-d81b578f24bc'
p173
aS'5cdad1f5-6656-4f83-ba32-4152ab051ba3'
p174
aS'3dc46eb9-2860-4d24-a186-0255ab2504c5'
p175
aS'64415bc7-b097-4334-aee5-419edd36ab2d'
p176
aS'231eded0-aaf7-49e5-a7fc-542e86bd26ce'
p177
aS'c772d2b0-13d7-490b-852e-384524ca9661'
p178
aS'76091502-6a69-426b-a516-793a6f0ec2d6'
p179
aS'5f10f00e-4c36-47ea-b31a-76ac9613a987'
p180
aS'9bff713d-56b0-4225-86b4-82633d46c65d'
p181
aS'1dba19b4-7dc6-4d0a-b7af-ffafd01eb71a'
p182
aS'16108523-ab9b-4bd8-ae67-6744a80273a0'
p183
aS'e84f5daa-d2b7-49b6-93f6-ab379fa05d5c'
p184
asI1487192264
(lp185
S'ddf8cefd-2e3a-403d-91ca-0d9a3798a874'
p186
aS'6123f834-c26c-4acc-bd57-517a97b82760'
p187
aS'4e4d0619-bbe3-446f-8887-efc4e60fea45'
p188
aS'3b6a8c83-3834-4bea-972f-62631d1f4ecf'
p189
aS'ea990104-4106-401c-885d-9af6475453f2'
p190
aS'd59c883e-31f3-4793-985c-ce3b98f14da3'
p191
aS'59b0b1f9-0311-42ec-becc-843f7c21583d'
p192
aS'dea2bfda-330c-4044-a2fa-7f5e97da4df4'
p193
aS'63032e99-0d1f-4d02-a9be-237a5517bcc5'
p194
aS'cb450775-1c36-4914-b5ca-f6fe8d94b23f'
p195
aS'4d808a72-7da9-4856-b5e9-bf9d7c091cfc'
p196
aS'9b980378-91ac-435d-aa4b-f5ede9344f99'
p197
aS'0063646c-d73d-444e-8281-22a5a1229456'
p198
aS'cbd28465-6235-4bf8-9731-0db1410c129b'
p199
aS'dcc7c52b-8e42-4058-afb6-ad1fcec9f7b2'
p200
aS'03dfc2a3-e08f-4c39-9c59-8e196bbb764c'
p201
aS'd36b30fc-e4ab-40d9-b63c-618ec5a6fee8'
p202
aS'dea0699e-6d60-43d2-b5fe-2b8c0b1d60b4'
p203
aS'04f0c858-6b10-42db-872f-8b32a76c7c38'
p204
aS'85e08597-726c-4de6-8416-f41a70dfaf7e'
p205
aS'807bfcf9-ed7d-48b4-ad28-125221e297f1'
p206
aS'8251126f-d1ff-4c15-b89f-b8ce933b45a4'
p207
aS'97ad66e2-e720-493e-af05-84b1696b42a9'
p208
aS'ab8c069d-c34b-42fe-9d83-12a9f9af99a5'
p209
aS'79d30b86-8529-4f02-b193-8f7bb35e6c5d'
p210
aS'5bbd95ef-2241-448e-8a16-4f87c7823a87'
p211
aS'b52d2c36-08da-4f6f-9ab6-767295a6c09f'
p212
aS'b497a012-20e9-4552-92dc-f6281aefc588'
p213
aS'79f46aea-42f4-41a0-af7f-8b451d2c6ad1'
p214
aS'273231fa-8e9e-4fa8-a815-eeecbdf863dd'
p215
aS'82a9e83f-ee91-402a-a68f-1474f4424c7c'
p216
aS'c64736b1-c6c4-4d5e-9b84-438788a0ba18'
p217
aS'7fc1a603-8583-4c47-80f5-9dcc8c370dfe'
p218
aS'3b4ee8bd-7af9-4b7a-b558-b40177065988'
p219
aS'e5b50f59-afbf-4854-857c-6150b9e5e73c'
p220
aS'44607159-a4ee-449a-bd27-4f8f25ab0547'
p221
aS'134d715a-ebc7-4406-a4aa-38908de63176'
p222
aS'fa7af946-c254-44ff-bba9-01407b5b4683'
p223
aS'48ece86d-1a35-4ddf-b24b-fae10036451b'
p224
aS'3aa85124-0304-42ef-9565-88b67e25ccda'
p225
aS'd92b1f59-9541-4777-9fd0-2f24e552723c'
p226
aS'6d52c217-d6bd-4511-8c87-3714e4bfae3b'
p227
aS'2c617178-b897-427a-8575-757551ea8bca'
p228
aS'8fa8ccdf-d6d4-4737-8594-aa7046496453'
p229
aS'f50ff929-8d15-4188-8a2e-b58ed07ff4a5'
p230
aS'102d1acf-6477-41f4-8398-061820422e7e'
p231
aS'e40e0cd6-b852-4fa5-b32a-34b7375ed54d'
p232
aS'eb0b4f18-0948-47d8-a95b-761170033351'
p233
aS'3e5c8a7e-d898-4e9f-9579-7f8f67cac269'
p234
aS'75503af3-6be4-4455-bb3a-18d23d8e5719'
p235
aS'b45ed142-685b-4297-9650-ada9836e06aa'
p236
aS'df6e4c9c-0583-480d-be2a-3abd416b4d87'
p237
aS'aa880f05-bedc-4400-be9e-221130d5ca70'
p238
aS'63d209c8-2c20-48aa-9163-3b08b549c8a8'
p239
aS'55192d02-4333-4ca0-bba5-0aaa424f5951'
p240
aS'4e04ff9d-94a7-4dd5-9af5-decf7a605aa7'
p241
aS'31a9b2aa-46b3-4e46-a698-2e6b3f80185d'
p242
aS'529c7d55-ccd9-4404-b0a9-4f9646f4664b'
p243
aS'1e46860b-6163-44b8-850e-2849f3c4ae63'
p244
aS'37af0b63-d6bb-4884-9fa8-be56e65e8d8f'
p245
aS'a8ed61ed-fcad-48f3-8774-ecabdb3f094b'
p246
aS'c2068a81-c8c6-4e9c-9b64-cd6de4cd8161'
p247
asI1487192265
(lp248
S'62e75639-b5ee-478e-8f04-e3d6ef36e97d'
p249
aS'ab957e28-0188-4367-9f72-52c98dedbaa5'
p250
aS'1ad18565-2945-472c-927c-dca3716d521e'
p251
aS'aeea1c86-fae5-482b-a8c8-b93498a6b027'
p252
aS'f06d8550-2c66-407b-8d63-7145b06187a9'
p253
aS'ed98a8c6-262e-48f0-9bb9-37253cd2a95e'
p254
aS'6b4a0aac-b74d-480a-8d2c-d541eed0210b'
p255
aS'63bc4f54-3097-492b-8bc1-91b31c6855c9'
p256
aS'7f06352c-546a-47be-9f38-76c2b069df39'
p257
aS'df9370b7-7598-4876-b9d9-62ff12007771'
p258
aS'0f5525ee-3fee-496b-838e-4d6edfa440c6'
p259
aS'9250e619-6def-40f0-95fc-cfbf706053b4'
p260
aS'ccc8138a-0f0e-4c4e-96ce-311c3bc9ff44'
p261
aS'935634c2-83ab-4d1c-a370-925fbc32140d'
p262
aS'952e4b22-c5f2-445e-b9b3-1652a9c5e324'
p263
aS'69c651c0-25c1-4bd3-8912-bc8b36d66bea'
p264
aS'04845f28-711b-444c-b868-b496ed9d5313'
p265
aS'68bbbb8d-9272-4ae9-9c22-07b16c02b8aa'
p266
aS'd8cb3a34-bb7c-482e-832e-10e56a431a86'
p267
aS'a2bdef3d-4c6f-45f8-9f51-1c0392e77620'
p268
aS'a99ac96e-b6a4-42f7-87c2-705e3f806dd1'
p269
aS'85a955c0-6543-4a33-96ef-ec9c80dedca4'
p270
aS'06f23f26-d0d2-4437-8be4-19706547be3f'
p271
aS'3f4d1f37-c2a8-4a9d-bd3b-92d5587b6baa'
p272
aS'3ecc0634-a243-45d4-b14a-4181607d9b96'
p273
aS'2f7aba98-ddac-4ea7-9e1d-c471bbb2fa0b'
p274
aS'663d394f-a504-4fdb-8cf0-cb5de948c651'
p275
aS'76e89c4d-03e0-469c-bf68-0101ad2839e8'
p276
aS'c1dd6a40-5941-4ebd-8377-a4dd64a66a08'
p277
aS'1d13ec17-1593-4883-99cc-bd8988c4784b'
p278
aS'46a57ca9-bde4-420b-8e10-76e2c7625809'
p279
aS'a21ee3df-95cc-4046-9668-a7ebe152111c'
p280
aS'e15ec45c-ddbb-4094-b017-d595aaad9dbd'
p281
aS'df303c9b-82ce-48f3-ab24-3a1c8d3e2847'
p282
aS'c4866ead-6410-4141-aaf9-606bf4e99620'
p283
aS'f3d0edcd-ffc7-48b8-8aca-05914231c055'
p284
aS'11256318-2b96-46b1-8d10-9156cd2baf41'
p285
aS'4aa7ad9b-b71d-40f4-a89f-ab0184dbe9bf'
p286
aS'0745860a-f4c9-4d7c-9050-ee920bc42476'
p287
aS'fd7d989b-94dc-42bf-a60b-9fd8a2d4e668'
p288
aS'ef55db22-6ec6-4c0d-b594-498eb886001a'
p289
aS'183a7fb5-dbb7-4f81-9e0f-c49bcb7d9059'
p290
aS'11e97d41-0894-4b37-a649-c22b717e61e6'
p291
aS'bdce656e-0d6d-4016-8cc9-c0b3e25b69ad'
p292
aS'91c209fa-30e9-4bbe-8951-f7952802f08d'
p293
aS'0f2f4dd7-30b5-4f8a-8fbb-59a27b65faca'
p294
aS'02944dbb-cf03-4bc1-9b7e-598fa46157ac'
p295
aS'edef7637-9c85-4963-84ab-abc6f7cf9757'
p296
aS'cbc5fcc2-6ab2-4a3c-8b4a-72be4625c97a'
p297
aS'4d585871-4bc0-4cec-9d43-c746070f4ce6'
p298
aS'b26c17f7-76df-4c5c-bb10-a548df78f037'
p299
aS'bf028240-eb10-4816-92b2-4cb5ac6ccd06'
p300
aS'35503042-a475-421d-99aa-432283c3dfa7'
p301
aS'd8b90ed4-5804-4c31-8e0d-ced8eca5bee6'
p302
aS'69400835-7f62-43ac-bbe7-b473a1ed445a'
p303
aS'86c81e92-5c64-425b-ae1a-fe095eefe846'
p304
aS'24324d71-7e48-480b-840a-f45850315b1f'
p305
aS'ab8b4499-a4a3-4716-b362-672dc657fd71'
p306
aS'22b25fac-9468-4ba6-992a-cdc8969fef48'
p307
aS'3a728ced-1870-49ae-8d7b-896eea15dd4c'
p308
aS'0ed671dc-946d-4694-85f7-a25c5d76339d'
p309
aS'7379930e-23f3-4567-924a-46e77e9b6652'
p310
aS'581f51e2-8e0b-4676-8129-08885c6e356b'
p311
aS'1c3d962f-aa1c-4446-8862-1f3478b56ab3'
p312
aS'f8144761-29e5-490e-bb1e-135d79174cad'
p313
aS'be535067-a947-4c5f-bba4-55cf778aca73'
p314
aS'1ab65887-4b4d-4a25-ac36-2daba227b75a'
p315
aS'cc1ff79d-43e7-41ff-ab7f-a6985795353c'
p316
aS'f1dbf257-2e8a-4394-85df-ea39f2529038'
p317
aS'b8f2bd35-8ef3-427d-a703-6382d4e3e084'
p318
aS'bfe0dbaf-72ae-4c98-9a48-010fb5e7b0d0'
p319
aS'6901bdb9-03e8-41a0-b6d2-1c22d00d121a'
p320
aS'9866dcbe-b0cd-4271-ad8c-6d6f7758af0e'
p321
aS'051de654-96fb-4fb4-8bb9-41218753c5aa'
p322
aS'f2cca1ff-90f1-427d-8877-a3cdb20547dd'
p323
aS'131a798d-78ac-4734-bb25-630a25bbe1b4'
p324
aS'3d3c7f43-3c84-4647-926f-541bbeb84194'
p325
aS'dd9267dc-09f0-4c95-ab7e-60916479defc'
p326
aS'33e1a48d-cb33-41ca-8434-a3bd345e30bc'
p327
aS'64e3db93-2a40-45c7-8fc7-c9e6bf63ccbe'
p328
aS'3d9fae69-7e7f-43e6-91c7-e8a7bec47633'
p329
aS'6fc280de-c7f0-4ce4-9e28-7969f2fed529'
p330
aS'8b2815a4-3ad9-4f3a-8ce1-0a4832cc4224'
p331
aS'e54d615c-10a7-4366-8418-601d16dd0129'
p332
aS'0c0decf6-d437-47bb-bdac-af0df79e09e8'
p333
aS'6c03c81b-e7c8-4dc4-bb47-7efb1e3f0198'
p334
aS'3566955b-1c12-492d-bc38-3a95e27bdfac'
p335
aS'4110235d-226b-4f66-8af4-70661ac15cb0'
p336
aS'cc293d38-4c50-4b27-9241-590eac3112c3'
p337
aS'ffbfe95f-45b7-4141-898a-d1a315d4617c'
p338
aS'697b210a-64a8-4960-9375-994e051c6fbb'
p339
aS'3d156e00-3afb-4fee-8014-86ea83a5d13e'
p340
asI1487192266
(lp341
S'2ef11a37-bfb3-47ce-b21e-9eace5dde900'
p342
aS'99495b5b-9b61-4db1-8435-3891e54fcf66'
p343
aS'3ffef02c-8e00-4b4c-8fb4-6dbefd87c044'
p344
aS'65d42412-a98a-44f0-9ad4-9392aeb008e8'
p345
aS'9baf23b8-5024-43ed-b756-3a89d8dbbfa2'
p346
aS'388d050a-247f-44cf-a72c-1a3a83342843'
p347
aS'c464f3fb-7c75-4de7-a18e-4f26ab517dc3'
p348
aS'd7e240f5-575a-43ab-8997-e56b35f9a900'
p349
aS'a42514a6-6839-43c8-bf7d-cf3b35947a0f'
p350
aS'054e9064-8d8f-4fff-9baf-792e1b07068a'
p351
aS'31c7f4f9-c7cb-4890-b3ae-8b2b5e6649e4'
p352
aS'1b85d277-a128-4e67-9950-5d69df9f6bc5'
p353
aS'8d2b575e-2850-4376-b80d-691820a53301'
p354
aS'ac3f1f3e-50c1-4fc6-a2da-f1f4ab3c1f99'
p355
aS'8ffc0edb-19e1-4ecf-9af2-c68c588f6e57'
p356
aS'5fad8fec-a3b0-4008-be0b-e095c59ffebf'
p357
aS'1748ce55-2302-42f4-9e3a-b21b5a5b89ef'
p358
aS'0bf7bab4-3da3-4ba5-bedc-a9a4c06e07e9'
p359
aS'426c8226-45a4-4df1-b9fe-a33e3c6f528b'
p360
aS'12ac6907-4e03-4a8b-988e-f2c684c75628'
p361
aS'c614270d-25b7-4b4a-a59f-8201194ded52'
p362
aS'28e1aa58-005a-4c4e-9d4c-eb5e12b0ca62'
p363
aS'066c668e-0443-4ce3-b016-845b8c4690fc'
p364
aS'48dc1252-4935-4682-80dc-8b20aca6b873'
p365
aS'65c1ee47-74e1-4b2a-bd21-797eee2650f7'
p366
aS'af4d0eef-f7d9-4d9f-883c-d37bc54ef851'
p367
aS'0e9d1630-157a-40e2-aa59-057516180b4d'
p368
aS'a10316ff-699b-42dc-96b1-ed2824861893'
p369
aS'b3f0d515-8911-4290-ae6b-cb31fb1576a8'
p370
aS'4cd17239-bebb-4347-82ff-941ffd624515'
p371
aS'0da2ff07-6108-4c53-b440-3405e0a577a3'
p372
aS'9b442451-49b1-4d96-aac8-abb91d3dd05a'
p373
aS'4cbcb3e6-86a8-4aee-9940-00b1f4abd75b'
p374
aS'4b66a02e-d08a-4875-8bd3-fa6c3441223b'
p375
aS'5c332dd9-ea2e-49fe-baa7-defa80143858'
p376
aS'b2cdad05-037b-4148-85f7-7e010d880f31'
p377
aS'a770c8a3-6da6-4eae-b1a3-35a9dcb0ac85'
p378
aS'a1a9eb11-9b93-4cf4-a197-1f6c95e14720'
p379
aS'49e89fee-84f5-45d7-b1ff-150196521fcd'
p380
aS'c09a9007-b4ee-4bad-8ad7-e0eb46ae6f2f'
p381
aS'401dc1a4-8949-4423-b493-2548a79d1f84'
p382
aS'bdc82d5b-2a13-4edd-98f0-cd49c7886667'
p383
aS'4c1f35ed-b034-4bdf-a216-5545eb9c123d'
p384
aS'0f686c26-3684-45eb-ba8c-7b308a898f53'
p385
aS'0b67a32b-02ce-4798-b920-ab14c74b9acf'
p386
aS'd97150a7-4de4-4a91-8136-5394b5dd8ff8'
p387
aS'b8c63c00-bd14-4cb2-813a-3adaf16e41cd'
p388
aS'7e29bdf6-3ba6-4226-b3f6-32d43fad6d0d'
p389
aS'08fd26ed-5b4f-46aa-8efa-6e0bd742bbc8'
p390
aS'53e60f28-3a5f-4791-a130-ff1471b29a94'
p391
aS'fd55776d-d1a5-421a-9c88-ed06957eb07c'
p392
aS'e36520a1-68ca-4e5a-b748-9f0e8e84b27f'
p393
aS'd8c20140-ebe7-464a-ab78-6859a2447d2a'
p394
aS'b9692d82-9a42-44c4-beb9-df01799cdeb4'
p395
aS'70c88242-e348-4198-91de-fd5a640a0fe0'
p396
aS'a9c1ac52-bb93-4ade-90bd-c434cb5304a7'
p397
aS'c55ed1be-bed7-417e-91d1-5cc5a5340b34'
p398
aS'fb78d9e9-2c8e-4e7b-a34a-52ff07b3f4ad'
p399
aS'f148b914-d41d-44f9-9454-718b67ab1ed7'
p400
aS'98053a06-1618-47e6-a7f4-fefcc42b5fa0'
p401
aS'adeb502d-5250-42e5-851e-2d4426cbd2df'
p402
aS'3bb8e962-38cd-4abb-a314-7624380045b2'
p403
aS'97deacfc-024e-4c83-95cb-79b99d645574'
p404
aS'6670f269-3a5e-4f1b-a144-6068f7dfcf47'
p405
aS'023f5f6b-f805-4520-add2-2a0c88617851'
p406
aS'0e853e0a-a3aa-449b-9669-b15e461b39a1'
p407
aS'7e4ca49e-e7ed-4a23-9c80-76d0166d9c31'
p408
aS'0e984b74-8b3b-4491-878e-9ee21f159f91'
p409
aS'98ae3f44-2ddc-4c5f-a6b9-77d135435777'
p410
aS'2fb144af-1bea-41b8-b8e5-3432f275efc6'
p411
aS'dcc8321c-a6ef-4970-baef-73cb29e166f8'
p412
aS'8d012a4c-9998-47e2-bc3d-50dde1cc05c2'
p413
aS'2eea4f5c-3360-405e-bfb1-854c597343e0'
p414
aS'8825f101-28eb-4a1f-941a-a8d51cb18782'
p415
aS'892acbb9-517b-41a8-af9f-41fafcbbeae3'
p416
aS'd6f75cdc-9ea1-492a-8526-b5a33a61d1b1'
p417
aS'429f2def-5363-49bc-87c1-4063870f7c7f'
p418
asI1487192267
(lp419
S'b34d21dd-4ed0-4fbf-befd-b3718446286d'
p420
aS'1c2eaa03-9e86-40fd-aab5-d523d9d43b36'
p421
aS'064f69b3-3245-431a-b532-b43bb5ba96a5'
p422
aS'9b49bb88-5318-4db6-b498-6d4c533fa443'
p423
aS'359af63c-dc57-4343-8916-a60876f3cd88'
p424
aS'9953264d-d627-4375-8425-1a1cca074d3c'
p425
aS'bb43506b-7081-43a8-914f-f8c9b32939fb'
p426
aS'd95b5f27-8275-4c00-9eaa-fbbdc195e58e'
p427
aS'4474aa98-58ab-43ea-8926-9d6541ebec00'
p428
aS'8ec333de-bdd5-4d89-92aa-29aff37d7f8c'
p429
aS'ccf9b5fd-9f6d-452f-8994-7dbcbd7de75f'
p430
aS'de88e31f-0f63-4ff9-99c4-47b1247465f6'
p431
aS'e88175b2-95bf-4573-9b6c-1854a99da1e4'
p432
aS'58aed0d0-da1e-4c71-a22c-b78425d69806'
p433
aS'af59a32c-5ed5-41a5-ac31-e28115894769'
p434
aS'7fd51be7-45c4-4b11-8d98-7253cb3351db'
p435
aS'901b3bbb-bfd6-4428-9aa0-38d42b16cf1a'
p436
aS'6c768013-5f92-4758-bf31-f2dd38f44383'
p437
aS'a4a789e3-ec0b-4748-ae32-daf5edd4c5ab'
p438
aS'682e0872-c422-498f-a7bb-491d1174d6d6'
p439
aS'e1b406c4-c27a-4f80-bfdd-1e4d65f8b8e1'
p440
aS'3a7f7b08-e487-45a9-b6d6-c3ef35509020'
p441
aS'1e4682b5-3bcb-43e3-8162-9f414bc9bcf7'
p442
aS'73060cb2-9dd1-490a-8e26-be3654b44db9'
p443
aS'8ea6ff19-c8cc-4b5e-b9a2-f45ec403eb83'
p444
aS'b7dd7a9f-2846-4f9e-8e56-3bfd1c862dc9'
p445
aS'f7a70251-b603-40bb-b7fb-0c09ce752ff7'
p446
aS'66e41630-cdf4-4275-8609-0baabfebacca'
p447
aS'ebc720f7-fcf9-41f6-9266-faa64538dac4'
p448
aS'b7cd429c-e2b9-4cbb-936f-b5fc852f2c09'
p449
aS'60865782-c1c6-4d6e-8ecb-1953454d7836'
p450
aS'1ce90d5f-1e60-4d61-8a86-c366d9dc2cd3'
p451
aS'051ad664-9065-4c52-9cce-bd05deb23d50'
p452
aS'b18ba162-4247-4d8c-b23b-414be64ec09a'
p453
aS'8b3acac5-7ae7-4442-ae98-0510497e5285'
p454
aS'9c519321-ae81-4647-8af9-8fb3e10571dc'
p455
aS'4835433a-bfff-43d9-9986-0f44d30c2eeb'
p456
aS'adc19e2d-96dc-44c1-861f-47f76bcc1c18'
p457
aS'72e3ab9d-aa84-4574-bf10-74e554137841'
p458
aS'be9e43b0-c0ea-4b0b-89f6-0e6be5d0ff81'
p459
aS'a6f69d0b-c4cd-41a5-bef5-0b1e7b25b628'
p460
aS'73dba1e9-1382-4e2d-aa11-491337cfa630'
p461
aS'c2a9a754-1a96-4412-a4b5-31dccced0139'
p462
aS'440e3df0-da19-4699-934d-dff6a13bb9b0'
p463
aS'2af7b18b-afff-4aa1-a4ec-017ce672952e'
p464
aS'81234af5-d391-4771-b6b9-31f5a12baf0c'
p465
aS'd988a555-61b8-43f3-93f9-16a82242d46b'
p466
aS'16aa9072-6ca3-4068-94b9-b708cdd1761f'
p467
aS'5a52d426-3912-4f04-9050-6bb5fa38db36'
p468
aS'487ebcb1-5d14-4e31-bc16-b9efd949212f'
p469
aS'c8ae292c-5b43-4746-a746-a1e7669a395a'
p470
aS'04f904d3-10b5-480a-b019-573279c0b152'
p471
aS'dff3beb6-9c88-4c3b-bb41-a3f5f1393659'
p472
aS'c7632211-afdd-4302-9627-12439f37c249'
p473
aS'adec0a0a-4a2d-404f-b385-44a61a88a982'
p474
aS'9ae4432d-1c93-4b7b-86ab-8f9e56f313af'
p475
aS'cb1d8d60-4a0a-422b-8344-518925c177d4'
p476
aS'9b7c8839-13f7-47da-a2ec-26f001ff0636'
p477
aS'd904e9f2-1d63-4552-9b00-4843faf8390e'
p478
aS'0c0937a4-08ab-4411-b396-d715804735db'
p479
aS'b15aadbf-1c77-48da-acbd-0a8271d9c991'
p480
aS'7703afec-29bc-40df-b3c1-e719e2df08ad'
p481
aS'9aade41f-e7b7-42ec-b9f1-b084d6b63609'
p482
aS'a538ac29-713d-4399-b0da-62f1dd16318c'
p483
aS'2e3228f9-96bd-407b-9ede-e124848657c4'
p484
aS'0c8f11df-dc9a-4b64-9ac6-3f701f45e3e9'
p485
aS'de58dd08-dfdd-4903-9e9f-0639db771ad2'
p486
aS'c973377f-dccf-4bbc-a4eb-e13b76727217'
p487
aS'1057a7ee-f155-4d65-9361-8fd2746e47d5'
p488
aS'e69e3062-a0c9-4196-87b0-3af2cca5ceba'
p489
aS'9f01b384-9706-400d-8fc7-4592ebcf95f5'
p490
aS'08c010b5-5fe8-4efd-b6c6-09a95b602e38'
p491
aS'9d9ee3d8-8c65-4b05-bc9d-8efbfb1ee48c'
p492
aS'66a585ee-5832-469b-9b40-13f021506a2f'
p493
aS'85b7810b-1b10-4f9d-8387-7f8cad2d4014'
p494
aS'80042205-faaf-412b-9abc-a379344e1868'
p495
aS'9661ce2b-c379-4b39-a09d-6f433077d3d8'
p496
aS'4b029a68-81fa-446e-a3fb-bdc7d6842714'
p497
aS'b73259e9-7c2f-448d-81af-d50739c98446'
p498
aS'7fdc3ffe-796f-4c78-938d-46aba1fd0c9a'
p499
aS'dcee245d-49a1-4cc9-819f-9f6ecf115c7b'
p500
aS'ec7ca4c8-c799-4398-a31d-b95750a763b3'
p501
aS'1247256b-356b-4ff3-8399-006210a6ae06'
p502
aS'9a2c73c9-e65b-4956-b1ad-a07304ab9754'
p503
aS'8d6cb6d0-f81e-4d34-aecd-7e6d51a3edc4'
p504
aS'93e16279-106c-4a46-9e41-03d7055a1d1b'
p505
aS'b0059208-e4d6-4805-a554-626e8863de70'
p506
as.