(dp0
I1486907394
(lp1
S'04437107-b247-4da5-8135-4c1d695d7970'
p2
asI1486893062
(lp3
S'378471a9-992a-4b5a-a49f-d0bf91026c32'
p4
asI1486901257
(lp5
S'186a7067-5176-49e2-a8d0-1472991fce1b'
p6
asI1486884875
(lp7
S'54e839f6-fc9b-42f7-a9a5-9fc611d4e310'
p8
asI1486872596
(lp9
S'7feeeeba-fd55-4605-b903-d66bc46cf1ea'
p10
asI1486917653
(lp11
S'4c2448a5-01a4-42d7-a7ac-be07ab2860ab'
p12
asI1486872599
(lp13
S'31f01689-336e-481e-9a9c-473ef62b94f6'
p14
asI1486872600
(lp15
S'6c83a47b-124b-439e-8553-21d9eb9f01e3'
p16
asI1486878745
(lp17
S'e5694afa-3d81-4c46-a3c0-289d20a05111'
p18
asI1486901276
(lp19
S'6ebcb9b5-c1fd-485d-907d-bddc117e8fd5'
p20
asI1486895450
(lp21
S'f3486561-16e8-4192-b97a-bd6113ebcdee'
p22
asI1486929959
(lp23
S'dc20e1ba-120d-4a7d-9ec4-fe370197ab2e'
p24
asI1486893098
(lp25
S'c59dd0a9-af79-41cd-b746-ee094de908f6'
p26
asI1486907437
(lp27
S'87c94c57-405a-4f80-b9c5-42b3f3966ef7'
p28
asI1486912958
(lp29
S'394033af-1409-4539-a9a6-bdf83a588e97'
p30
asI1486895169
(lp31
S'f73d5f82-ddbd-45c6-8d86-8c1ea226d76b'
p32
asI1486915656
(lp33
S'd88702ae-ea49-449c-9426-4ce70917d9ee'
p34
asI1486884940
(lp35
S'873eb9ec-8ea0-4ab0-894f-37c83600468d'
p36
asI1486858594
(lp37
S'b6ae3230-6d50-41ab-b2c4-768fbbf1e094'
p38
asI1486921401
(lp39
S'8b93996e-1daa-4d12-a21d-f68343721a32'
p40
asI1486901337
(lp41
S'79e52046-36c0-4c5b-bff9-da0bc5f91789'
p42
asI1486925914
(lp43
S'6ced5700-edeb-4ebe-9fb4-8cea52db6e2f'
p44
asI1486887009
(lp45
S'0d6c2390-d612-49ca-abdd-48aab3859590'
p46
asI1486910139
(lp47
S'e5baf55c-7e96-4662-b8fc-fd00507c4407'
p48
asI1486891108
(lp49
S'e28e66b2-3e5e-44e5-8830-56f5bbea6e73'
p50
asI1486872681
(lp51
S'c02e06c3-236b-476e-a61a-175e4bde36c2'
p52
asI1486901357
(lp53
S'2b49b2a8-ef01-4313-92fe-7a81e937bade'
p54
asI1486905456
(lp55
S'88f5443d-6c01-436a-9120-34b783b35536'
p56
asI1486909559
(lp57
S'da6b723a-5bce-4516-bb8a-c56abd4a91ee'
p58
asI1486934140
(lp59
S'f51d2ced-6152-44cf-9487-cd5d616fbd9e'
p60
asI1486901385
(lp61
S'0e22aceb-699d-4a72-b3ae-bc64ea5d2238'
p62
asI1486854283
(lp63
S'e8a46e90-c474-48b6-8d27-ad6a44585f97'
p64
asI1486938255
(lp65
S'ef19d9c4-e0bf-4d3c-bfa1-25e3c9b53e1c'
p66
asI1486921872
(lp67
S'7ff91689-7e7b-4045-a4ca-9b62135811d1'
p68
asI1486854293
(lp69
S'ea9b53ff-118f-487b-b278-280b0a2ae4b0'
p70
asI1486923928
(lp71
S'cedd4926-b843-4495-8feb-f92f7ef35260'
p72
asI1486913689
(lp73
S'c9900346-4507-4b25-b439-782b51885a14'
p74
asI1486938266
(lp75
S'cd596b1e-bb81-47db-bb52-5e704855ea0c'
p76
asI1486858395
(lp77
S'9154b40d-aa62-42b4-9b8a-eac882908dae'
p78
asI1486878876
(lp79
S'599cd443-cf45-4f4a-8c3c-334ba4251ced'
p80
asI1486919838
(lp81
S'6f393d11-0987-4f32-a4d4-04c668a9ef97'
p82
asI1486858400
(lp83
S'f9e5be82-3187-4ea0-889e-3e5c32beebf7'
p84
asI1486891171
(lp85
S'fc155802-578f-4e65-b548-c2192534c241'
p86
asI1486938278
(lp87
S'8103ac4b-b0ee-4a19-8fab-44d711d9854e'
p88
asI1486868668
(lp89
S'3f69d194-3686-48e1-8787-34d2b858a48a'
p90
asI1486901442
(lp91
S'eec7a407-acb0-4427-8043-bd8f7cabe6ed'
p92
asI1486871227
(lp93
S'371ae389-621b-4093-9096-35ec485d55e3'
p94
asI1486864592
(lp95
S'a2ba72af-1769-43a8-af8f-de6648a62f3b'
p96
asI1486859641
(lp97
S'a93e8756-0a30-4f41-af89-f45b504a432c'
p98
asI1486926048
(lp99
S'5130a753-6e7b-4705-87ea-ea0ab968594e'
p100
asI1486934247
(lp101
S'326862ac-49f8-4878-b119-741d429ed2b4'
p102
asI1486889193
(lp103
S'9ae0c29f-f9b7-48bd-b308-d5a1010b94f1'
p104
asI1486911725
(lp105
S'6c49e68b-1c07-4219-bba8-481c30dac0be'
p106
asI1486932210
(lp107
S'5576178d-6bd2-4fb3-b769-9b4e22a0b1c1'
p108
asI1486881012
(lp109
S'51df1e31-d846-4382-a6dc-33580165380a'
p110
asI1486936312
(lp111
S'7e5aa003-b550-4c3e-a9d3-961f6d51d392'
p112
asI1486924025
(lp113
S'd4544c76-0222-4428-be6b-d2f046492030'
p114
asI1486876933
(lp115
S'd693eada-2fef-4ca7-91ea-7f47bf9ad818'
p116
asI1486917895
(lp117
S'6d82d024-f48d-458f-ae17-1ce6e2f21673'
p118
asI1486889225
(lp119
S'68656dee-f7d8-4c96-9723-76c5bd36e8d7'
p120
asI1486878986
(lp121
S'4f2821d4-3c06-4985-bd95-6589fa9dfb0a'
p122
asI1486889230
(lp123
S'129fe69f-55cb-4f1d-8ddd-e503d0df7b9c'
p124
asI1486872860
(lp125
S'6ad8dcde-8730-4920-99a0-ea120a06074f'
p126
asI1486885150
(lp127
S'afa8221d-e0a2-4c72-a669-9ca9ad6e5b1b'
p128
asI1486915873
(lp129
S'd54513e8-c6b1-4059-9d91-ae5e74e14ef3'
p130
asI1486876966
(lp131
S'9d6989b1-72aa-48b9-957d-7fbe489364a9'
p132
asI1486868775
(lp133
S'bd2ef487-00db-4313-9d0a-b21ba0b738af'
p134
asI1486899500
(lp135
S'b482e0ee-95d8-4626-97a6-aa66b79369cc'
p136
asI1486900691
(lp137
S'6be294ef-3242-4023-afb7-e7fb8fb2f5e8'
p138
asI1486866738
(lp139
S'1eb79976-75e4-4bcc-92d0-b6f1488a6a15'
p140
asI1486886471
(lp141
S'cdc3f4ab-b67e-4070-84b5-af6a0a64bc98'
p142
asI1486893372
(lp143
S'5a966d66-56a2-4483-8e72-b3f8196e7386'
p144
asI1486913855
(lp145
S'c20d9a2e-b1ee-4791-8c40-62dd0fb4cf49'
p146
asI1486882219
(lp147
S'b025a523-12c8-45b8-8bbe-e089b21225b4'
p148
asI1486895438
(lp149
S'32ef9a43-36b8-4c29-bca9-a08f3ebd2277'
p150
asI1486891354
(lp151
S'3c27a417-30e4-428d-ab11-ac69a57dd9a2'
p152
asI1486879068
(lp153
S'54c14559-5f85-4f7f-9bb2-62ab072a5374'
p154
asI1486920032
(lp155
S'e93056f4-4dfa-4531-b47a-f58903c63a91'
p156
asI1486922082
(lp157
S'a1a4747c-88a0-4ace-8bf4-b2b60cba75ba'
p158
asI1486883171
(lp159
S'4ba8a770-1bc0-4e04-b39d-50994bdf426a'
p160
asI1486926189
(lp161
S'24f5c0e5-3083-4cc9-8c29-4964d2d22a1a'
p162
asI1486881136
(lp163
S'416ffeb9-f01a-476c-8bb5-40dd51768681'
p164
asI1486877041
(lp165
S'205d0547-0e6e-4a23-b75d-3910d4167a25'
p166
asI1486911858
(lp167
S'512b3c96-fbf6-4eac-a2bc-9231e6909f5f'
p168
asI1486887287
(lp169
S'4b362d9c-163b-4943-8490-baa0c55b0633'
p170
asI1486885244
(lp171
S'085a8280-029a-4805-a716-9f03318842eb'
p172
asI1486899581
(lp173
S'21b45482-2096-42ec-8e1c-a67e0fea5ee2'
p174
asI1486901630
(lp175
S'c2df2036-22db-414f-a1b8-26aee1d635e9'
p176
asI1486891392
(lp177
S'1c1235cf-5a64-4b98-b616-4733ead0de59'
p178
asI1486934402
(lp179
S'139ad72e-f583-426b-8be1-fd5fa4eca303'
p180
asI1486864107
(lp181
S'34415572-3beb-4dc7-a630-f11dcc37474e'
p182
asI1486860679
(lp183
S'79be6fcc-13fa-4082-9ff3-2ef1a2fcb4cb'
p184
asI1486909832
(lp185
S'be49b630-6934-4b53-a504-876ac748d8ca'
p186
asI1486920077
(lp187
S'a67bcc73-267b-4bbc-b503-f21f7331d76a'
p188
asI1486877076
(lp189
S'344ccf1f-f78a-412b-adf0-cc0c3c9892e5'
p190
asI1486930333
(lp191
S'734330f7-b1b5-4d9f-aa49-ceac0a848d5b'
p192
asI1486932383
(lp193
S'3471c9a5-0e3a-4738-986d-24e3e6cd5c62'
p194
asI1486891426
(lp195
S'a655c105-0ed6-4f24-b489-2125c43bd7dd'
p196
asI1486934439
(lp197
S'bb56cbfc-84a9-4a6a-8349-aa1040f4e3f8'
p198
asI1486858665
(lp199
S'39a23aaa-9a78-4467-9bac-4d8054cdb84e'
p200
asI1486883251
(lp201
S'fb51f7e7-5150-4452-ae96-5a38d4738fd8'
p202
asI1486856630
(lp203
S'7a8d1747-91c2-462f-9ba6-19391e62990e'
p204
asI1486864824
(lp205
S'3503cf87-2eae-4d1d-aaa0-4293fed9e531'
p206
asI1486858681
(lp207
S'4240353e-2cfe-48b1-95be-bb54ce43a38b'
p208
asI1486856638
(lp209
S'9fcddd19-116c-4109-abfb-e0bb04d85fd5'
p210
asI1486881217
(lp211
S'0446ac52-9e11-43f6-8df0-f3da8df9ac7c'
p212
asI1486911946
(lp213
S'0c3e2d6e-86f7-4526-aa3d-db350af84665'
p214
asI1486879180
(lp215
S'608b28be-9a30-43a5-bc87-ada9022e1f77'
p216
asI1486903760
(lp217
S'676e260c-31f5-4460-bf3e-de78a0f94cd4'
p218
asI1486907861
(lp219
S'00eb9551-9548-4d0f-add8-8910a0949f60'
p220
asI1486928346
(lp221
S'42d84d20-4535-4a12-a643-0d1d21ceea40'
p222
asI1486914015
(lp223
S'9243e5f3-870f-4848-80c7-c3a03a57dabd'
p224
asI1486895584
(lp225
S'18f83da1-89ff-41e1-8076-5c89076562f7'
p226
asI1486869243
(lp227
S'225e5ce9-e6f8-447d-a363-9d8523f2c1f7'
p228
asI1486938597
(lp229
S'f493f1ea-e4c0-424f-b110-cc7ce0f9489b'
p230
asI1486873065
(lp231
S'86275568-4b04-4824-a48b-6e0c23aee03a'
p232
asI1486895600
(lp233
S'539e6bbb-3dcb-4591-84a2-b1f0d0a77ed5'
p234
asI1486914033
(lp235
S'0cdca118-8d4c-4d89-aa13-93a32f75cb64'
p236
asI1486918132
(lp237
S'fe77934d-237d-48ab-b4ab-f543ce230e87'
p238
asI1486907900
(lp239
S'ba9ac59a-5ebc-45aa-a45e-eafbfdc947f5'
p240
asI1486938624
(lp241
S'1e151c4c-c594-4667-a4a1-ad7ba894ead6'
p242
asI1486879235
(lp243
S'b174d068-8f7f-4d5b-b2db-5ac8e7281ac2'
p244
asI1486897672
(lp245
S'da582a55-606f-4027-bbc8-2c6be62733f6'
p246
asI1486871056
(lp247
S'a7188b63-af07-489f-be4a-6b961b0d556e'
p248
asI1486860817
(lp249
S'5cd44129-de06-484a-bec0-9515456ac051'
p250
asI1486912023
(lp251
S'dfb2a6ac-0639-433c-9de4-b4f6e377b520'
p252
asI1486938648
(lp253
S'1da763e4-73d9-4b66-afd2-caaeea37bae8'
p254
asI1486922269
(lp255
S'd7aeae20-d422-4372-933b-fdb7f9a262b7'
p256
asI1486883361
(lp257
S'424a8c66-ad48-42ec-be6a-5318a30907d6'
p258
asI1486881318
(lp259
S'8bd0e9e1-68d8-48a3-9054-98da34b5d2b9'
p260
asI1486858794
(lp261
S'047695f8-3380-4410-bc97-af20a2e94f62'
p262
asI1486856748
(lp263
S'963c1ffe-f00f-4d37-b242-33ad6bde1a82'
p264
asI1486885424
(lp265
S'c205995d-8236-4e1f-9118-6818b28e00b3'
p266
asI1486938547
(lp267
S'ad649173-a8e9-4e5f-a9f0-9b01877ff215'
p268
asI1486879284
(lp269
S'2d32b350-b82e-4025-b313-c7818b145ac3'
p270
asI1486934581
(lp271
S'0a30e0a1-6c6b-4bcd-b5a3-85ab81a6b7c0'
p272
asI1486897721
(lp273
S'104811f3-daec-42f1-aa4d-8ea6c2d1a5fe'
p274
asI1486930492
(lp275
S'fad64a21-e140-4434-8058-3626b6955779'
p276
asI1486901821
(lp277
S'67cada72-d20b-40f2-a50c-b24be0b79b77'
p278
asI1486883394
(lp279
S'05bbad1d-c18f-4f92-b801-fe4b783c17d3'
p280
asI1486889539
(lp281
S'a7babe99-c636-4b4a-bf77-fa1183be43da'
p282
asI1486873170
(lp283
S'3387a991-5002-455d-b1b4-93bf7b3920c7'
p284
asI1486920290
(lp285
S'75856e79-ac36-4bc0-9e84-f9e303ebb842'
p286
asI1486910566
(lp287
S'da02d5f0-2b92-4012-8c3c-96bc44ff2088'
p288
asI1486903912
(lp289
S'b1195248-f3ae-4934-aabe-318ff4884fe3'
p290
asI1486871146
(lp291
S'b179a9ae-0402-4204-b67d-eb91e1e11b3e'
p292
asI1486908011
(lp293
S'88f1aee9-da2e-4479-b0f1-4f5ac3731c91'
p294
asI1486899824
(lp295
S'42399845-701f-46bc-b401-2ab60b1e57c4'
p296
asI1486856817
(lp297
S'16108786-2e73-41da-8e1e-546e548870a1'
p298
asI1486891634
(lp299
S'0a6619a1-0a87-45e9-8511-c81765bbec7d'
p300
asI1486865011
(lp301
S'462f0856-911f-4df2-9a9b-fa192f932673'
p302
asI1486921150
(lp303
S'4c0a5936-db77-46a6-933f-0a0f91899610'
p304
asI1486932612
(lp305
S'30608e6d-5d19-4d38-99a6-acc20ba27653'
p306
asI1486936710
(lp307
S'352a99c3-b11d-4adf-9731-3ca43ec1346e'
p308
asI1486928519
(lp309
S'6428936e-32be-4aa4-a486-48ed958b7574'
p310
asI1486901913
(lp311
S'e9c0756f-5f3e-4b2c-bec2-6aad03ade63c'
p312
asI1486869146
(lp313
S'9fc98819-0218-4dfa-9470-0f2244f0c5f6'
p314
asI1486928547
(lp315
S'3ffdc304-eb45-4c4a-a7f3-dc6a55af726a'
p316
asI1486928548
(lp317
S'0b6c388a-2044-4b5e-bfbc-194a68fa7195'
p318
asI1486854829
(lp319
S'6acc377b-f3fe-4f5a-a00b-11bf9a0751c1'
p320
asI1486893745
(lp321
S'9e3cac0c-c9c4-41f8-82b4-82e3cbedbd95'
p322
asI1486877366
(lp323
S'854b05f0-a172-4248-a19b-767358e2f371'
p324
asI1486906043
(lp325
S'eeb26fde-0ff9-45f4-8925-4742d48c9335'
p326
asI1486897872
(lp327
S'518289d4-f830-4b08-afb4-14118bcb76bb'
p328
asI1486895827
(lp329
S'176319fe-3f40-4a76-9540-c5382afae7ee'
p330
asI1486908116
(lp331
S'1d28ddc8-fe13-4100-9b6b-c2c593b59da7'
p332
asI1486901977
(lp333
S'363d496c-c590-4167-ae49-317376416b0f'
p334
asI1486869967
(lp335
S'023789fc-b438-4144-84c8-7211b81f0aa0'
p336
asI1486861028
(lp337
S'43f939b2-7831-4427-9f5b-372273033dc1'
p338
asI1486899944
(lp339
S'f82dbc1b-dcc1-40fb-bf37-b4ddc675b8c3'
p340
asI1486918378
(lp341
S'707a69f6-82d1-45a3-a2c2-027a0ab062de'
p342
asI1486869971
(lp343
S'18f03263-ab6f-40a8-8ab8-90d5bcf1c6ff'
p344
asI1486885627
(lp345
S'74f2ad2c-a542-4da3-9b09-ca7412c9c0e2'
p346
asI1486870997
(lp347
S'55a50a18-172f-4d02-ae01-66cf1ae0ae19'
p348
asI1486891776
(lp349
S'9bbb6ad5-44bd-48e2-b1a0-0adb6e9e0ea6'
p350
asI1486854917
(lp351
S'198e989c-4780-4faa-b6ee-e0588d69f113'
p352
asI1486897927
(lp353
S'7c5b9426-a1de-4609-b321-47c9ea8fe051'
p354
asI1486924554
(lp355
S'f70cd20d-91de-40ca-a37f-08c4c8efdef0'
p356
asI1486877466
(lp357
S'3fdf7067-0f17-4691-9156-0321a5c7a88d'
p358
asI1486895901
(lp359
S'213d965c-d2b8-4cf3-aeb2-906d058278f0'
p360
asI1486920478
(lp361
S'51c914d2-e1cd-4efc-a866-666b03c65cb8'
p362
asI1486938911
(lp363
S'4ece4ae7-443c-4080-a982-5db131031a9e'
p364
asI1486884341
(lp365
S'15d16568-ee3f-495d-9b68-a373a248bbb8'
p366
asI1486889772
(lp367
S'c59d5310-103d-4765-ab04-9fba9773548b'
p368
asI1486893870
(lp369
S'b54cdc40-c341-41ad-a868-1309cb8faf4f'
p370
asI1486916400
(lp371
S'ffe8b454-9217-4a1c-a5c7-85091cb27bda'
p372
asI1486867251
(lp373
S'3dca51a4-f6f0-43e5-bf9d-4086af9274eb'
p374
asI1486904123
(lp375
S'36eb1536-ccd3-4d4c-a973-581220ed0d88'
p376
asI1486857022
(lp377
S'cc116943-73ef-4244-a5ca-e253e85d6362'
p378
asI1486871359
(lp379
S'58e54364-39b4-4c3d-8c06-958dd75f53b3'
p380
asI1486893889
(lp381
S'859d057d-4b96-426e-be96-9457c1437785'
p382
asI1486895939
(lp383
S'1dddf751-d924-4d0a-a1d9-8874b7abdfbc'
p384
asI1486891847
(lp385
S'0f513864-5cf6-491b-8047-5cf9f34f357c'
p386
asI1486885704
(lp387
S'08853521-6985-4ad9-8346-5d5a9fc3e248'
p388
asI1486924621
(lp389
S'62019ec2-6260-4fcc-94ec-0202bbabdfaf'
p390
asI1486902095
(lp391
S'48c624e6-4fe8-4899-ae54-7a7f408423da'
p392
asI1486908241
(lp393
S'a2eab273-489a-46d3-b6c8-08e35124e99e'
p394
asI1486908244
(lp395
S'5780fafb-e7d6-4c5a-a07c-d9c596494f26'
p396
asI1486891861
(lp397
S'6cd8b0e9-8695-473f-af3c-d1e180ec1a45'
p398
asI1486916444
(lp399
S'43b82cb2-503a-4ec1-a864-06084f03ba66'
p400
asI1486885739
(lp401
S'5769e98b-a3b4-48c7-b5bf-0bfae1f3f6bc'
p402
asI1486859118
(lp403
S'dce7a781-3574-4bf4-95da-32ec303d5e08'
p404
asI1486916465
(lp405
S'68aa136f-2bc0-4243-8bf9-93a8bc5c2812'
p406
asI1486875513
(lp407
S'54319e6f-39f7-4a98-9bcb-b9c2434df5b3'
p408
asI1486869377
(lp409
S'0f9eb152-e0d3-4c52-944e-047fce46485b'
p410
asI1486912662
(lp411
S'f59ba3e3-742e-4a12-83db-b2b79ac8053f'
p412
asI1486863238
(lp413
S'42571bec-bfb8-4d8a-a204-7dfca203695e'
p414
asI1486912321
(lp415
S'4fdba4b5-15b6-48ba-9f3a-46454764e364'
p416
asI1486879629
(lp417
S'60c8c37b-4460-49de-bcf9-5944c2b0decc'
p418
asI1486912401
(lp419
S'0378b9f5-d5b2-4212-8624-c8b4b987d2ab'
p420
asI1486893973
(lp421
S'39b4412b-dc71-4c9b-8f3d-9491c3b06084'
p422
asI1486922646
(lp423
S'e89d91f2-5cc9-42c9-99be-440e69b513c0'
p424
asI1486875547
(lp425
S'edcbdc65-8341-41e6-9128-a3b7d0ce054c'
p426
asI1486908316
(lp427
S'3d201aee-8c63-470a-b0dc-6dca73f41c74'
p428
asI1486863262
(lp429
S'dbd3cf7b-3fe3-4ab0-8473-8885d9e8afbb'
p430
asI1486928800
(lp431
S'38ab804d-5f18-4c34-a6fc-a3cb80aa5720'
p432
asI1486919193
(lp433
S'7830c6ea-bfb3-4e63-b76a-cb5a92c9fb44'
p434
asI1486918569
(lp435
S'ab862a12-84e1-441a-a3af-4a3c42c66c5e'
p436
asI1486937003
(lp437
S'a046d36f-1c4e-44f8-846e-0b2eafacc01a'
p438
asI1486891950
(lp439
S'67c96741-ca0f-4bbe-9246-450b2f2e0dab'
p440
asI1486916424
(lp441
S'943f9170-a139-4622-bd52-c21ab449b671'
p442
asI1486922680
(lp443
S'e6c52466-227f-4864-acc2-769607cc3ffc'
p444
asI1486863290
(lp445
S'734ab069-f999-4fcd-8022-53e8f8856341'
p446
asI1486910395
(lp447
S'55c1b730-16c3-4378-80e5-9a4753514d79'
p448
asI1486902205
(lp449
S'6ba7a678-33eb-41f4-8172-41266c01a34f'
p450
asI1486877630
(lp451
S'db018ede-e048-48af-853e-8296690fdd08'
p452
asI1486924735
(lp453
S'175d6a82-3ba9-4d0d-9139-b1ece83af5f7'
p454
asI1486930882
(lp455
S'3ba9c924-80e6-46ac-a7ed-de191b0b1fff'
p456
asI1486918596
(lp457
S'c2ac7c56-08ae-44e0-a80d-ca6502939705'
p458
asI1486923254
(lp459
S'7ec521dd-0022-4d82-85ba-792a2a018033'
p460
asI1486912454
(lp461
S'35f4f779-f1b3-4595-9d87-37a451831429'
p462
asI1486879687
(lp463
S'346fb875-ec44-4e2a-977f-f1eec44c1fca'
p464
asI1486928841
(lp465
S'7017f11e-ecf1-4845-8195-1ebddd4ca027'
p466
asI1486902226
(lp467
S'44a7194f-6514-43a2-ab8f-94e27f8dade1'
p468
asI1486930899
(lp469
S'a306c9bb-9f42-4977-96be-282e58552fb9'
p470
asI1486926806
(lp471
S'c9149615-bbc6-4042-b01d-a002a97df112'
p472
asI1486912307
(lp473
S'a2cf6710-70f8-4bff-bafa-427ca7b9e43e'
p474
asI1486896094
(lp475
S'1180f87b-5cd3-415b-9d9b-f323b6bea713'
p476
asI1486857192
(lp477
S'0e81168f-4920-4509-b3a8-bb1f937b3d46'
p478
asI1486870013
(lp479
S'4192fce1-eb90-47f6-a8ab-8bdc9de91435'
p480
asI1486930930
(lp481
S'2b91fcd1-721b-4e71-aa9f-755068784adc'
p482
asI1486894068
(lp483
S'bd560489-68ea-4eb3-a969-36f89e4ad8a4'
p484
asI1486870777
(lp485
S'b00b552f-7cb6-49ed-8135-7cc02b0ab56e'
p486
asI1486920192
(lp487
S'18148d2f-4afc-4a12-993d-eadaf08d697a'
p488
asI1486916618
(lp489
S'86845228-63f8-4a7b-8e3f-75a8f54e012a'
p490
asI1486875663
(lp491
S'a3a22f71-7d2a-4e11-b806-6f6107dc1570'
p492
asI1486908437
(lp493
S'4c7a9653-e0c6-4479-b2f2-5045b4f6a7f6'
p494
asI1486861336
(lp495
S'b8554d09-3570-4f48-ae42-f3c093a8ee94'
p496
asI1486935065
(lp497
S'e09453ea-3c28-400f-bb83-735d09da511d'
p498
asI1486914735
(lp499
S'346e0ce9-fcb9-4853-a96e-09fba26c94fe'
p500
asI1486917466
(lp501
S'd6a1ca77-b9f5-4ca4-b05f-0ccb9678e462'
p502
asI1486892079
(lp503
S'5abc1768-4673-494d-a3f3-7ed627eea893'
p504
asI1486877744
(lp505
S'8e4db793-d515-4c27-87a6-66ffe984ca10'
p506
asI1486924849
(lp507
S'47385872-b6a1-4e08-b78d-dbf820507ec2'
p508
asI1486890034
(lp509
S'bd0b16b7-d2d7-4bb8-a16e-984d935bee9c'
p510
asI1486890041
(lp511
S'f8ec5168-0188-4964-bc58-79d43d7678e2'
p512
asI1486912575
(lp513
S'165af529-098b-4048-90f7-f7596266617f'
p514
asI1486904391
(lp515
S'dc4b7cdf-b8ec-4fe2-aff1-005821b165b5'
p516
asI1486863885
(lp517
S'e1c4e4b4-cbca-4d32-99a7-6daf710c9112'
p518
asI1486918738
(lp519
S'a6a66fea-d3ff-4857-85ad-2aecbfd9af28'
p520
asI1486931034
(lp521
S'51e30a47-c2e2-4b4f-afbb-e331ade6b368'
p522
asI1486912603
(lp523
S'e574bfd0-457d-4d34-aca6-3dbc5d932d68'
p524
asI1486898275
(lp525
S'357868a5-6d4f-4844-9347-a6656c0818e0'
p526
asI1486885990
(lp527
S'd5c7bbdb-29e2-491f-8a29-b413dd1afe0c'
p528
asI1486902375
(lp529
S'71307fa9-de81-4e71-96b5-e2fef42b21c9'
p530
asI1486933096
(lp531
S'a089ab3c-1b70-4dbf-9b1c-585689f0e13a'
p532
asI1486898285
(lp533
S'9d66a9e3-811e-424f-bba7-e2a37021aa78'
p534
asI1486920818
(lp535
S'3cfd8c9d-aa44-4403-9f3d-72f7f271ff98'
p536
asI1486873720
(lp537
S'54ae18e4-ad8d-405e-b4b7-7adc4f47cd8e'
p538
asI1486906500
(lp539
S'0bd355f6-edd9-4513-ac25-3ad3e3dd8d65'
p540
asI1486867590
(lp541
S'2e3015fb-7336-4c95-b12f-b786d0607042'
p542
asI1486933127
(lp543
S'26649e17-9bc1-47e5-b1e2-52399556ef45'
p544
asI1486865546
(lp545
S'26a62f7b-29cc-42aa-8492-92e074ab35ea'
p546
asI1486883986
(lp547
S'999bd859-fe03-4cdf-babc-12651168f173'
p548
asI1486859414
(lp549
S'dca85f27-5a4d-4c41-959a-df0a672a895e'
p550
asI1486873751
(lp551
S'f81af068-ed15-4306-b6f2-30fa2bc74b23'
p552
asI1486937244
(lp553
S'706fe928-5f51-41b8-94ac-04b1ce41361a'
p554
asI1486859426
(lp555
S'fa2a7288-6a0e-42bd-9e40-2983a3cf98cc'
p556
asI1486904484
(lp557
S'3bc843f3-85c1-46f3-a2a4-2b007b3cb401'
p558
asI1486871724
(lp559
S'5981c250-347c-4aca-85e7-15cf86ef0eb2'
p560
asI1486894253
(lp561
S'1056857c-87fd-4608-b95b-c44b1edc46b7'
p562
asI1486900398
(lp563
S'728b8b3a-5ccd-4d8f-b397-bd6c5466c488'
p564
asI1486857391
(lp565
S'd8cfda0c-b838-4f73-aa8f-a5ccf81b3660'
p566
asI1486914736
(lp567
S'2146f49c-f66b-408d-b9d6-b04a1cfafab5'
p568
asI1486935219
(lp569
S'6d76deae-22f2-4a40-84a9-5f9486e3d480'
p570
asI1486939323
(lp571
S'a0418bc1-f2ba-466c-9b1c-1ad791ed3434'
p572
asI1486888124
(lp573
S'fb127e7d-f25a-40fd-bec2-3a33c4f12dbf'
p574
asI1486906558
(lp575
S'a65dd167-8302-4035-a247-89405667aaf0'
p576
asI1486888821
(lp577
S'5eb0a72e-421e-4e4a-a145-4f01b94e1063'
p578
asI1486912704
(lp579
S'42064799-05cb-4425-9c7a-7a38f91f24a6'
p580
asI1486869698
(lp581
S'3a29a445-b942-4271-ac92-da3844cbb513'
p582
asI1486916804
(lp583
S'97aa0d5f-7a7c-4820-bd15-f0b3a58743dc'
p584
asI1486918853
(lp585
S'f1d8561c-972f-452b-9df8-a39cc52798ce'
p586
asI1486900423
(lp587
S'67b1c8e4-5afd-4cba-b629-001e04f76df2'
p588
asI1486879944
(lp589
S'558a6da9-1038-4578-840f-cb5c400e4cf5'
p590
asI1486900434
(lp591
S'ce648851-075d-4f4c-bb0a-04a2178805cc'
p592
asI1486920916
(lp593
S'7c893623-fb22-4192-a41f-382f5dd42ac9'
p594
asI1486874149
(lp595
S'd46d5532-73a2-4f12-b883-a24916350b1b'
p596
asI1486900450
(lp597
S'c2b3f867-9aa2-43ce-9f3d-010f858d0a97'
p598
asI1486865642
(lp599
S'02f99f4a-c427-453b-ab37-199bba026594'
p600
asI1486892271
(lp601
S'd757d64e-9e64-4621-bc7e-5c095f3e0514'
p602
asI1486918896
(lp603
S'566772af-38fc-4751-8b94-ab9ea51f7da9'
p604
asI1486916849
(lp605
S'4e5ce896-2d38-4f9c-82de-52d66dfd9a61'
p606
asI1486884088
(lp607
S'3d14f8a5-0ca3-4a7c-a5e9-338f0ef9959d'
p608
asI1486873853
(lp609
S'b2a3745e-972f-45ce-9c86-c7e979030b48'
p610
asI1486892289
(lp611
S'507712ed-14ac-4821-94e5-098019037981'
p612
aS'2e7ea7d6-1e18-46a4-a8c6-d8b2a867992b'
p613
asI1486890242
(lp614
S'ccfb106d-6252-4736-8e42-f3e51df17a74'
p615
asI1486939395
(lp616
S'26a480d5-a200-46d0-99d2-6aecfe3845f4'
p617
asI1486908679
(lp618
S'361f77e7-5283-4076-919d-c78cc3f024df'
p619
asI1486929160
(lp620
S'58e8d2b7-9c03-4985-8d5d-ea4247d01912'
p621
asI1486882057
(lp622
S'e0275265-9d71-404f-854b-a5530131028a'
p623
asI1486892298
(lp624
S'c1fc2feb-71e4-45ad-92b1-7f72949c0ae1'
p625
asI1486902539
(lp626
S'8b03387e-5176-4e48-8e22-9454c0819fdc'
p627
asI1486914828
(lp628
S'dda5a0bf-e755-402d-a055-8dfb0ef00f17'
p629
asI1486857490
(lp630
S'fc5ce989-ae06-4b59-b898-e3c69fddacca'
p631
asI1486856067
(lp632
S'c11ed28a-8c94-430f-956a-7a3d703b0ec4'
p633
asI1486859540
(lp634
S'05587b1a-7a57-4aff-a5cb-90f5201c37e3'
p635
asI1486854624
(lp636
S'd336972c-960a-44bd-998e-b3e9057da8f3'
p637
asI1486859545
(lp638
S'7581c50b-83c4-44e3-86cf-f8d6fb132b51'
p639
asI1486937372
(lp640
S'ec213d12-5902-40bd-a56a-3926eecd1d3c'
p641
asI1486900511
(lp642
S'1d17c510-172d-410c-b840-7b07713d72bb'
p643
asI1486867745
(lp644
S'7caec0fa-008f-4fb3-812f-66c8747fd1fa'
p645
asI1486933285
(lp646
S'1dca66dd-7d8e-4dea-b829-a240925f0f64'
p647
asI1486908977
(lp648
S'8dd555f2-820f-43e5-8dcf-b22f1494832a'
p649
asI1486857524
(lp650
S'92d09fdd-c87b-407f-8037-dec77ac134ff'
p651
asI1486939446
(lp652
S'd4a9d76a-db11-4095-970b-bd6b8c6e2aa8'
p653
asI1486882112
(lp654
S'48951f3c-3dd3-4d0a-a138-c126fdd71b28'
p655
aS'60ec2063-6f43-4c14-beef-067da8d18cff'
p656
asI1486863691
(lp657
S'c124072c-1678-40a7-abff-81fcc656391a'
p658
asI1486935375
(lp659
S'c3f7795d-f2f2-4512-b7a1-d3e77073fe32'
p660
asI1486884178
(lp661
S'14008d6d-e691-4f43-aaf1-64cb386e8c7a'
p662
asI1486900581
(lp663
S'854e7010-0448-4305-8b16-c9b7f691dcca'
p664
asI1486912872
(lp665
S'a25fe526-5822-4ddd-b0a9-ea25a2bc426d'
p666
asI1486930151
(lp667
S'1658fd8b-5ce0-4efb-ad57-4105e41e4180'
p668
asI1486906733
(lp669
S'e4a825f1-18b4-4850-af30-36c9e89875bb'
p670
asI1486884206
(lp671
S'b6d374ea-b0d0-4d04-a18b-e63c7d0c21dc'
p672
asI1486935411
(lp673
S'a59a05d1-1bf3-4ed0-829e-88e39bc27afd'
p674
asI1486913769
(lp675
S'3b590114-cdb9-4cb1-8864-118c2bb850fa'
p676
asI1486865785
(lp677
S'cde9c4ff-9fd5-4e9d-8e87-180fd61ce784'
p678
asI1486910850
(lp679
S'e4d44e61-9de7-448d-955d-4db4f758ee9a'
p680
asI1486880131
(lp681
S'514beeac-dbc4-43fd-bd08-6049b5bd028a'
p682
asI1486932546
(lp683
S'9126c42f-2492-41d5-b6e0-5fc0ff925d02'
p684
asI1486871953
(lp685
S'34619cbd-c534-4a85-9c53-8a42ce0c4c7c'
p686
asI1486869917
(lp687
S'8dbd1e33-d655-498b-a8c6-94347be04371'
p688
asI1486908831
(lp689
S'49583a09-d980-4dc0-abf6-c1e19d2fe0b9'
p690
asI1486935457
(lp691
S'dfe1eb0f-6a37-4915-a000-ce26c308b5df'
p692
asI1486921126
(lp693
S'9ddefe81-4632-4064-bdbd-2a0a11a1ca8e'
p694
asI1486908841
(lp695
S'3e258846-b1f4-411d-9a3e-ba7cac956b3c'
p696
asI1486865991
(lp697
S'85cd1817-847d-4abc-ab53-8e28ce058fb9'
p698
asI1486867888
(lp699
S'100a40d5-a70c-4773-a8da-4dbe827694a5'
p700
asI1486921143
(lp701
S'c0931b0d-9c64-467e-9fbe-15d56970f1d4'
p702
asI1486861755
(lp703
S'2ee67910-ea5e-4ec1-833e-5ea7633b4b05'
p704
asI1486863805
(lp705
S'9dda16c8-7dc1-476a-85c6-f25e866aa02d'
p706
asI1486939582
(lp707
S'1173ebc5-3637-4c02-b85a-657124475a2c'
p708
asI1486859715
(lp709
S'634fa739-50aa-4f93-b9af-cc2fe1340cc2'
p710
asI1486933448
(lp711
S'129dd737-4252-45ac-8214-0d17d0aa231d'
p712
asI1486892495
(lp713
S'dcbdfd2b-346a-49b1-b66a-6720773f9442'
p714
asI1486933458
(lp715
S'c4175242-498e-4fac-bb5c-4c01c073e8c3'
p716
asI1486917075
(lp717
S'43792920-bd2d-42bd-8592-6eae6fccf7d2'
p718
asI1486903545
(lp719
S'4175ed7f-3e6f-44b8-8c9f-1110caa2842f'
p720
asI1486882266
(lp721
S'd731c89e-60f7-403e-8e0f-d2c7bc3034c4'
p722
asI1486925275
(lp723
S'3a2c5972-881c-4083-a6d3-ef65f8fce20f'
p724
asI1486863841
(lp725
S'1e58cce0-f22e-4122-8879-52f600514365'
p726
asI1486912997
(lp727
S'61ae4895-955f-42ee-bfae-c5eec5eaa2af'
p728
asI1486865895
(lp729
S'd99391b9-e087-463a-96c5-f67b46fba5dd'
p730
asI1486878184
(lp731
S'ca10ec69-ac13-484b-83b1-fb461902099b'
p732
asI1486915051
(lp733
S'7103a9b3-7c63-4340-88ff-91c6b3859707'
p734
asI1486910961
(lp735
S'93ee7e0a-830e-40e0-89be-c2cddf3b0841'
p736
asI1486894578
(lp737
S'c418d6cc-4fef-422a-9453-ff8ceff956a0'
p738
asI1486906869
(lp739
S'1f7d08d6-72db-4610-96b3-475dd4c8e2c5'
p740
asI1486935542
(lp741
S'e531e34a-2ad0-4c36-98cd-85fbf61e2ad0'
p742
asI1486906281
(lp743
S'ed85a8db-00f0-4417-97dd-2d8ac1f8e643'
p744
asI1486929405
(lp745
S'b8a2bf04-0bc6-4218-aa51-57372e6524bd'
p746
asI1486863870
(lp747
S'0453c9f8-20b0-4e63-a5d3-b9284e19c535'
p748
asI1486935555
(lp749
S'48f89f9c-06c3-4579-8ce2-38cd88634666'
p750
asI1486935556
(lp751
S'706e679c-d084-4373-80b9-5485c0b9cca4'
p752
asI1486882310
(lp753
S'c6adf665-917a-4f71-be1b-a9ba424efc5c'
p754
asI1486894605
(lp755
S'7f04c797-29ed-45b6-bc1d-beecd31bdfaf'
p756
asI1486921645
(lp757
S'9451e304-36b4-4729-9b9e-c979f483a0b5'
p758
asI1486896656
(lp759
S'5f61a233-cc4f-4be5-bd5b-6e162a4bba82'
p760
asI1486855704
(lp761
S'e18c75ee-a105-4499-92e1-2a93e24dfd28'
p762
asI1486865945
(lp763
S'd4b4c699-c10e-4c77-b906-179d710de12c'
p764
asI1486888479
(lp765
S'd49935df-b8b6-437f-812b-4ff1493d2e4d'
p766
asI1486894629
(lp767
S'2c884453-aabb-4fe2-a9b2-ec12a13d9712'
p768
asI1486919206
(lp769
S'38514595-38eb-4738-90d1-29195cbc64df'
p770
asI1486853671
(lp771
S'08550bce-853e-44b8-8f59-df7d56792803'
p772
asI1486904873
(lp773
S'527645ff-89b1-43a5-a4cc-b1a96068ee8d'
p774
asI1486890543
(lp775
S'79373256-2e76-4068-b2fe-9202a967ab83'
p776
asI1486911024
(lp777
S'1e715c0f-ac5e-4e17-82c8-b66b9da071cc'
p778
asI1486884401
(lp779
S'c360b9c5-fbe9-4b18-96a2-2cae9feac3bd'
p780
asI1486874166
(lp781
S'9ac2b2aa-f8a5-417f-b38e-5f7a2de48743'
p782
asI1486855738
(lp783
S'f545b470-2113-49c9-bd92-b864b820556e'
p784
asI1486911071
(lp785
S'e6d46fb3-1e98-43ec-9232-ac8396a9b839'
p786
asI1486885130
(lp787
S'ff653fbd-d4d6-4acc-a97b-7c4847b4c31a'
p788
asI1486915139
(lp789
S'e1d8a8f9-2afc-4b9a-82ef-fabbeee4fdaa'
p790
asI1486882375
(lp791
S'ad199353-e2f5-4458-ae9a-155391074d8d'
p792
asI1486909000
(lp793
S'3a9c4980-8ddd-4eff-a4ae-a0cb2f6f2314'
p794
asI1486855754
(lp795
S'eddeef6b-1cf8-4ea5-9222-a0db436d5953'
p796
asI1486861900
(lp797
S'f9037f34-3541-4fc3-8234-c0d7d5be447f'
p798
asI1486853709
(lp799
S'7124f977-c197-40de-9edf-eb9f1ba961cd'
p800
asI1486857807
(lp801
S'24cde535-2a03-41e5-a765-ebe0ddbf578d'
p802
asI1486929490
(lp803
S'2cfbc6b7-479a-423f-afff-c952d3371229'
p804
asI1486927443
(lp805
S'9849ab14-34fc-4d14-bde3-7f48229f2604'
p806
asI1486886484
(lp807
S'093c42dd-2ead-45f6-800b-a1ccd4cb9385'
p808
asI1486863964
(lp809
S'c6e4fe5b-b157-4428-8001-af42c4422957'
p810
asI1486931550
(lp811
S'8808dd6d-a53d-4b81-bda4-110ff96a364a'
p812
asI1486896735
(lp813
S'70b1c033-ca05-43bd-9f64-6681c311f1fb'
p814
asI1486911783
(lp815
S'b457195f-f8ea-4a21-8de1-fa9ddc20a8c3'
p816
asI1486882406
(lp817
S'4723b93b-5f42-44d6-802e-039ef7e9f755'
p818
asI1486915176
(lp819
S'6750d8d2-d98b-433c-ac60-12c9a45d4b74'
p820
asI1486909034
(lp821
S'eb269ab1-ca64-4bc8-9b30-11dd11f9b9a7'
p822
asI1486939760
(lp823
S'9f8bdddb-a19c-4bb5-a241-5a6d4fc46901'
p824
asI1486906984
(lp825
S'c03dbcd8-bc13-431e-afbd-9e25f76efe56'
p826
asI1486872182
(lp827
S'16b4362f-f9f0-4333-ad3f-a5ce436c1d0e'
p828
asI1486919287
(lp829
S'dc687662-d3c3-4823-826b-e6500a0f654d'
p830
asI1486872188
(lp831
S'024adad7-e354-47ba-acb5-e7643551c15f'
p832
asI1486907005
(lp833
S'ff47ced8-d569-494e-a98d-44d0af857c87'
p834
asI1486925439
(lp835
S'5dd5cdd9-52a0-4e22-9c7e-660e616e1bd1'
p836
asI1486935680
(lp837
S'cdd27548-53c3-45d8-b552-8bf47509eec6'
p838
asI1486923395
(lp839
S'5eb77c36-7e7b-4e37-b820-9faae79aa049'
p840
asI1486882436
(lp841
S'1af30c56-7afe-4ccd-94cc-706288108d6d'
p842
asI1486927495
(lp843
S'd381f162-9258-4a0b-b77f-30ae2b364015'
p844
asI1486907016
(lp845
S'f3298d34-9ad1-4778-9027-e3774fdf2faa'
p846
asI1486915211
(lp847
S'cfb6335e-0f99-4d6f-8471-5c0c8ba9ca34'
p848
asI1486935699
(lp849
S'fe86cd39-b024-4cc2-8174-1166076239ed'
p850
asI1486911429
(lp851
S'a91bb9ec-5bc5-41aa-a35d-00a3ecab2f83'
p852
asI1486934640
(lp853
S'924ca890-b295-4088-8321-a52406bff78f'
p854
asI1486884517
(lp855
S'0b828554-875e-4ba4-aecf-1ea44aafad93'
p856
asI1486880425
(lp857
S'4bded676-4f27-493f-b34f-9e0f53bc6465'
p858
asI1486884530
(lp859
S'405407b5-0a4c-4974-8568-2ec0d07c84c2'
p860
asI1486927545
(lp861
S'98ae6890-104d-4623-ae7b-7ceacc327b3f'
p862
asI1486939847
(lp863
S'1edf85d8-496b-4806-b233-d4479059f5ab'
p864
asI1486931660
(lp865
S'd904ad8a-bf35-4fa0-9a55-e7456384108c'
p866
asI1486886605
(lp867
S'7fc77ef1-c68a-460a-8f2c-bc569b9c3ac0'
p868
asI1486882513
(lp869
S'03457463-fa09-46ce-9741-503d6963ab00'
p870
asI1486876370
(lp871
S'c78c6639-6989-460d-831b-940e93e7c534'
p872
asI1486857945
(lp873
S'78a255c8-3e75-4634-80f3-f8178f94f9fa'
p874
asI1486933725
(lp875
S'c5743fb9-d19a-4294-8c68-f01b695f1112'
p876
asI1486919390
(lp877
S'a69bd4d6-6e89-4760-85e4-1a2e4d5c04a2'
p878
asI1486857952
(lp879
S'7d47e0fa-0764-4760-b5f6-3eadd7e2a546'
p880
asI1486890722
(lp881
S'77b956f1-606a-4996-8310-d5885d139fc1'
p882
asI1486937832
(lp883
S'17e6d1a6-513a-48ea-b22c-f2e41ca0f740'
p884
asI1486886633
(lp885
S'2b285c3b-4076-4aaa-8c7b-ca736b1b742b'
p886
asI1486872871
(lp887
S'1d0bed69-09f7-4886-84cc-c2cab4996edb'
p888
asI1486911216
(lp889
S'1b4f82fa-3fed-42e5-a7bf-47210643bd6a'
p890
asI1486934995
(lp891
S'7feeeef1-d745-4982-a673-03e2543faf83'
p892
asI1486874356
(lp893
S'50a71280-808d-4c4a-b681-6db0431560ac'
p894
asI1486855808
(lp895
S'40224e92-9302-4907-9a4e-0154dc261545'
p896
asI1486927618
(lp897
S'16ddafa1-86cf-4089-b61d-f924aaea08f1'
p898
asI1486929670
(lp899
S'64a3373d-0deb-4ca3-878d-dcdad3d2138e'
p900
asI1486876426
(lp901
S'c5b7a488-1db0-4faf-8b12-640531564a54'
p902
asI1486878479
(lp903
S'cd703e8f-b0e5-451d-89b3-9e2e152b3eaf'
p904
asI1486900867
(lp905
S'4dc33526-fb46-4b0e-90a0-5ccc3c8e8d8e'
p906
asI1486884629
(lp907
S'a2d38da1-42fd-478a-bed4-0885ef7e6e8c'
p908
asI1486871513
(lp909
S'415eadd6-35af-4964-bedf-104912e286b9'
p910
asI1486929693
(lp911
S'9c063dcd-c5d1-4881-b07c-068135af6686'
p912
asI1486894884
(lp913
S'4a6be129-b8ec-4794-938a-6fe371318ffe'
p914
asI1486864170
(lp915
S'80e018b4-38db-4175-99e5-e02ecb212e95'
p916
asI1486856498
(lp917
S'd101c7bb-7a4a-4de4-bcf3-6023d9b2f649'
p918
asI1486858038
(lp919
S'a17a128b-3d6e-4681-be9c-b7e2e4284af1'
p920
asI1486853947
(lp921
S'a0a558a3-bb94-4d99-9369-2b3ceef2084e'
p922
asI1486892868
(lp923
S'7a6db643-a0f6-45b9-a591-f9805fbd78a6'
p924
asI1486863315
(lp925
S'591bc241-2e99-4553-bc7a-c1d66b9bfaee'
p926
asI1486856014
(lp927
S'2f3900a5-79a6-4463-aa7c-6b7a09b0a288'
p928
asI1486862159
(lp929
S'5783a9db-9adf-4478-92cc-25e7e3b72197'
p930
asI1486866257
(lp931
S'cf6ff0ff-b58b-4bfc-b40d-29abba802a53'
p932
asI1486933842
(lp933
S'477af091-613f-4951-89a2-543e923a68a6'
p934
asI1486890842
(lp935
S'9e2be89e-b755-4b89-a6f4-9e4d8687cf48'
p936
asI1486860125
(lp937
S'75747981-2823-4bea-9a7d-dd66ec06df9e'
p938
asI1486901086
(lp939
S'4b7b386e-3420-4ed0-8e9e-a6dc8a302e67'
p940
asI1486903151
(lp941
S'6418ba28-2f42-427c-8bd1-10d72747f4c0'
p942
asI1486911349
(lp943
S'2f302ef5-e5d9-49e7-b3bd-194f115255ea'
p944
asI1486905210
(lp945
S'b8505024-e603-4350-959f-0020ec0188a8'
p946
asI1486889279
(lp947
S'41085afc-33e7-430b-ba57-3e14549a04af'
p948
asI1486897023
(lp949
S'6947ff1b-8fc7-4326-86ee-3d987a8ec283'
p950
asI1486905219
(lp951
S'ae89e222-81c9-4fa0-af17-4f61e16d1d68'
p952
asI1486917520
(lp953
S'ffae4246-c747-4716-af4a-f94af8b05c30'
p954
asI1486913425
(lp955
S'f5dd2455-ecf8-49df-999d-e6aa3af51063'
p956
asI1486935968
(lp957
S'91e3c664-c881-49ea-aae3-5cef4a845c97'
p958
asI1486880673
(lp959
S'a495446f-b22c-416d-8679-033de6b91499'
p960
asI1486901154
(lp961
S'e6835bec-f550-4dbe-9cd5-622a04652415'
p962
asI1486880675
(lp963
S'80e4dfe8-76be-4f3f-9433-50c4b9f052bf'
p964
asI1486917545
(lp965
S'5c4c1266-cc6b-474f-bcd7-8971f57dc7ea'
p966
asI1486868397
(lp967
S'3ab89790-2acf-4da5-b1c5-18e05a2a354f'
p968
asI1486935982
(lp969
S'6983b9ba-23f2-4a31-996a-29909a839872'
p970
asI1486854064
(lp971
S'117c8e10-6714-45d3-a4fd-036fdbfb5f4c'
p972
asI1486870449
(lp973
S'2fc958f2-150b-4df5-a410-1cf488eb4829'
p974
asI1486895026
(lp975
S'878a4130-5c33-4724-ade0-3133445aedf7'
p976
asI1486927809
(lp977
S'f93c97e6-f9ca-403e-b448-681573c7a022'
p978
asI1486888899
(lp979
S'227845ea-bdce-43e0-9f97-d2e6a426cd29'
p980
asI1486907333
(lp981
S'868ef330-70a7-40ff-b426-32d56e31d27e'
p982
asI1486915532
(lp983
S'e7a8eed1-49ad-4331-a8c0-0aacf19f948e'
p984
asI1486897120
(lp985
S'5e94a863-105d-4c21-9c6d-162f06de9f1e'
p986
asI1486856165
(lp987
S'00d6c140-9de3-4aa9-8e5a-8ab88ea5c75e'
p988
asI1486923759
(lp989
S'01b21dee-33f4-4a8e-8e81-b31f327d7213'
p990
asI1486931957
(lp991
S'b66d1496-2e3e-4160-8dc9-5b3f9a0ac458'
p992
asI1486925814
(lp993
S'f215d35e-cdf8-4863-a40f-5b00b46aa25e'
p994
asI1486868472
(lp995
S'9599da5e-2d2c-440d-95de-fa24c931d3b8'
p996
asI1486880767
(lp997
S'ba8d32a8-df0a-40d8-836b-59ce7fad2ea6'
p998
as.