(dp0
I1486866434
(lp1
S'4723a314-3a67-4832-9ee5-eac3806b9aa1'
p2
asI1486850051
(lp3
S'4e6de309-fab7-4ffd-b503-f62bfaf12198'
p4
asI1486848005
(lp5
S'3c8a2f0b-7013-4734-8385-8b19b28e3bf0'
p6
asI1486803287
(lp7
S'1958d6fd-69d4-47cc-87ff-f7397e44a98a'
p8
asI1486823436
(lp9
S'fb2b76dc-32d3-42b8-a55e-52d8871e10d3'
p10
asI1486829584
(lp11
S'b2044f9a-3117-4248-b0e6-26a88eb64b9b'
p12
asI1486837778
(lp13
S'095aa819-c9ba-49c5-818b-831eeebfe1ed'
p14
asI1486825494
(lp15
S'd39fae5f-39d2-442a-b0a6-8ede8c8f0b1c'
p16
asI1486860334
(lp17
S'09c642cd-5cc6-4fe6-a86d-02b57c872ad8'
p18
asI1486807087
(lp19
S'efbeb1d5-2ceb-4d06-ba8e-8df45a1dace0'
p20
asI1486786626
(lp21
S'55f67899-2a13-4179-b36b-fe9e609f6ee5'
p22
asI1486815307
(lp23
S'4e2699f3-3d6e-4913-8ba2-0f884fae7518'
p24
asI1486856278
(lp25
S'd206f0c9-5423-4b23-aac6-9814857a3e3d'
p26
asI1486819415
(lp27
S'6bb50f3e-263c-443e-96ad-6d9445dce40c'
p28
asI1486851428
(lp29
S'db787cb2-2fcf-43b6-8150-2f56d1e89ebd'
p30
asI1486821469
(lp31
S'd6a16300-f123-4a4e-9bdd-37af3c00f172'
p32
asI1486862435
(lp33
S'6af1b9b4-60d5-47ee-9525-b1affe096c71'
p34
asI1486815333
(lp35
S'fbaa1bda-89cb-4803-a560-0e33d9b47e3f'
p36
asI1486856294
(lp37
S'cfb93da5-7408-4810-a674-035ae8dda97a'
p38
asI1486817384
(lp39
S'ecd50abe-89d2-4f0a-b4cb-45136af1f029'
p40
asI1486842216
(lp41
S'26648249-6769-4150-b35a-d49e899457a5'
p42
asI1486782578
(lp43
S'f33eac73-a727-42b6-aa7e-7b38eb9e6df4'
p44
asI1486857235
(lp45
S'21564d76-cd23-4e9b-babf-5dea2b5f9b52'
p46
asI1486823541
(lp47
S'c09a1e2e-88da-4778-9c26-f4ef3079bd96'
p48
asI1486825594
(lp49
S'98b07d7a-7dd5-485c-a17c-65626bf5ac75'
p50
asI1486792827
(lp51
S'5f9c29fb-5238-4e16-874c-25ab1e62e4ec'
p52
asI1486801021
(lp53
S'2afcef3c-c8ef-4e0c-bb99-5722daedc200'
p54
asI1486817408
(lp55
S'61d23c66-979c-44ac-9f37-8c6b11bdec81'
p56
asI1486782144
(lp57
S'5c1482ae-c9de-4dd2-8dc5-48a425396f74'
p58
asI1486792841
(lp59
S'a884b261-c7d8-4ff6-8be3-280afe1b44c4'
p60
asI1486811285
(lp61
S'61607cf9-5f31-4ca6-bd31-bb6009359923'
p62
asI1486831766
(lp63
S'61dfa0a7-f4d7-4db6-9366-328df6455754'
p64
asI1486864536
(lp65
S'2b3fda71-2cb4-4437-a454-23ed227f578a'
p66
asI1486821530
(lp67
S'd4a5209f-28d7-48fa-8d68-b62e9c1db0ed'
p68
asI1486862496
(lp69
S'29dc60fe-01ab-4501-b530-9573ca349af1'
p70
asI1486833827
(lp71
S'70834e9d-8e3a-4bf0-8e77-15f117c068f8'
p72
asI1486809457
(lp73
S'318e7de4-3e3b-4508-895d-b16a12c51f4c'
p74
asI1486786728
(lp75
S'ab1caa7f-30f8-41b3-9229-659a843000e8'
p76
asI1486811305
(lp77
S'ddffaf73-b947-4732-874f-bc34c0428c8b'
p78
asI1486794922
(lp79
S'97293a17-afa5-4b50-8db8-3dc73ee0ec86'
p80
asI1486860462
(lp81
S'04dbe74e-2e7e-46ab-be2a-d9cc2820521b'
p82
asI1486837937
(lp83
S'5132662e-8439-4b12-b9f0-a055e358d56e'
p84
asI1486818676
(lp85
S'b136ed47-db06-4da6-b7e5-b3097b56df1d'
p86
asI1486835901
(lp87
S'8f0b279d-e841-4149-9f75-fab98f931de4'
p88
asI1486837960
(lp89
S'4fb946c8-ce4e-4b1c-aab9-c1e70bc45186'
p90
asI1486797004
(lp91
S'4c94a6b4-422b-444d-88f3-343e3ea19538'
p92
asI1486846160
(lp93
S'16180077-5f10-41f7-823d-cc54ef52d988'
p94
asI1486825685
(lp95
S'86f4400a-daff-4170-9670-264a17643ab2'
p96
aS'7b17342c-d3f8-414b-9674-3e6b7eb86075'
p97
asI1486825686
(lp98
S'e7c2deb6-f055-40f5-bdae-117183bcdbe2'
p99
asI1486833017
(lp100
S'b7c82cd8-4c44-4ea5-9939-418ab164d70b'
p101
asI1486811352
(lp102
S'1a5292c2-3a7e-48e9-8670-08a20cd691b8'
p103
asI1486788827
(lp104
S'f5c73be1-c5ae-4b0a-9e34-df9d8ef358a9'
p105
asI1486864607
(lp106
S'98ab2fc7-0618-48fe-a16a-4c0d1339f81f'
p107
asI1486803168
(lp108
S'5a219594-55d1-4963-9df4-0d38ed44cf79'
p109
asI1486854371
(lp110
S'1b7846c5-f1e8-48dc-a96a-9ac5b27561d4'
p111
asI1486852324
(lp112
S'547ef348-8890-4229-98d7-7f175dc68165'
p113
asI1486844136
(lp114
S'623b26bb-8370-4c15-ae14-34c0e0b31a72'
p115
asI1486858475
(lp116
S'dd40dcb6-95bc-4a19-a113-9d05e08cfe35'
p117
asI1486854386
(lp118
S'8c3acd42-7353-4d35-80ab-c370bf6be5c1'
p119
asI1486788307
(lp120
S'bde29022-8218-47a6-b7a9-91f3afe1c11f'
p121
asI1486807285
(lp122
S'fb05b94c-bf25-4f22-b9e5-cc7aa2f38eea'
p123
asI1486782720
(lp124
S'd36ed43e-7bd1-467c-8cba-1301c1b44c73'
p125
asI1486815493
(lp126
S'878df8a9-6303-47f8-bca3-c368c849e6bd'
p127
asI1486813453
(lp128
S'4f1aaa3c-c710-407f-a14d-4787e17d1ac1'
p129
asI1486807310
(lp130
S'48a5031a-dfbf-48b4-9899-ed4e3020c52d'
p131
asI1486864655
(lp132
S'4e158c19-82e7-48be-8e31-ed51aee6d7b2'
p133
asI1486866704
(lp134
S'21240e8f-dfd8-42de-9b6a-9674952b3e8b'
p135
asI1486829844
(lp136
S'7925188a-0630-43ed-b566-3b8aab450492'
p137
asI1486835992
(lp138
S'4d4ff82c-cccd-423a-8670-7c2eda3d7e50'
p139
asI1486836002
(lp140
S'8449cb11-eebc-493e-af9a-5499bf4c42cd'
p141
asI1486805286
(lp142
S'248d05bb-d8dd-44d8-8304-b74a81c334fb'
p143
asI1486790953
(lp144
S'2f6e792c-639d-43f2-a8a1-b2e469ff46b0'
p145
asI1486809386
(lp146
S'1efaeade-be7d-4938-8faf-eb176f38c60a'
p147
asI1486844204
(lp148
S'2a366538-4661-4143-b0ad-7c5a8a11b789'
p149
asI1486858541
(lp150
S'5af46bbc-636d-4cb9-a305-e37d17dfe00b'
p151
asI1486838073
(lp152
S'37229595-8d4d-4a57-b9f7-63ada7512d55'
p153
asI1486786875
(lp154
S'75a2f704-66f2-4dac-bd1d-639a085bb63a'
p155
asI1486795071
(lp156
S'b6b3ea08-f4ae-4688-aa03-61730262e30e'
p157
asI1486790976
(lp158
S'db6b50eb-a3a9-4390-a43b-af4667e91273'
p159
asI1486799169
(lp160
S'95369f77-f1e4-4246-b833-f0a79311fd33'
p161
asI1486864714
(lp162
S'44bb9c53-7f0b-4b8a-babf-5262e4e9972b'
p163
asI1486795083
(lp164
S'ecb1797c-305a-4de8-bda6-a3cef463b145'
p165
asI1486853859
(lp166
S'bacd0191-5ce8-4bd1-90f9-e6242156d017'
p167
asI1486844245
(lp168
S'41f61778-ca13-41d2-9f97-c56efa55270d'
p169
asI1486827863
(lp170
S'0df461ff-c16f-4b51-aad6-a6fc73f53a3b'
p171
asI1486854489
(lp172
S'3ffac1c5-d764-4365-a2b5-03d402132e83'
p173
asI1486805347
(lp174
S'88e30cc5-2067-4ec9-ba33-22194bb48d45'
p175
asI1486866789
(lp176
S'49888f34-e9ca-46fb-aa66-3586d142ee8a'
p177
asI1486795112
(lp178
S'd2d79b81-7d1e-40e8-b3f0-c072d3058152'
p179
asI1486805355
(lp180
S'73546901-4717-4d2a-968c-a6cb6e252883'
p181
asI1486811505
(lp182
S'89c58980-a8a8-42c5-ae9d-4d92cf4de66c'
p183
asI1486786930
(lp184
S'80e57447-d157-41b7-99c1-49f624518df9'
p185
asI1486805366
(lp186
S'6040dbcd-97ca-4b87-9d53-01ffa63c826a'
p187
asI1486838137
(lp188
S'81d488b4-6624-4dc9-b3e2-1920c5dba518'
p189
asI1486827898
(lp190
S'ba7ec91e-5e04-4b25-a79a-27599d9c03f6'
p191
asI1486815614
(lp192
S'767a1c48-a86c-412f-9f57-1cea44d0ca2d'
p193
asI1486801280
(lp194
S'84b11137-9f8e-4f19-94b4-36433c0f52a6'
p195
asI1486804033
(lp196
S'13034429-500b-49cf-9de4-9dab30a14b8b'
p197
asI1486809483
(lp198
S'43ac3f17-218d-447b-be71-8a390391762d'
p199
asI1486799938
(lp200
S'789e0f3b-3fa1-4141-947f-4e5907678c60'
p201
asI1486863323
(lp202
S'4a847d13-0a66-4195-95ea-678c4796cfdb'
p203
asI1486852495
(lp204
S'a0aace99-6d8a-406a-8753-85bb5c173b7f'
p205
asI1486860688
(lp206
S'ac927d83-8d40-4032-bbae-58fec702a92b'
p207
asI1486842259
(lp208
S'fac42cea-38c3-4d73-a8b4-c077ab6d12ed'
p209
asI1486842268
(lp210
S'3e8ba30f-f233-48cc-9e9e-58a209867dd9'
p211
asI1486801315
(lp212
S'393e4e81-9627-4db3-8087-4f0c7388ec62'
p213
asI1486797221
(lp214
S'8b59495b-9c9e-4872-9016-46873381f888'
p215
asI1486801322
(lp216
S'cb15a7b7-41de-4b44-9365-6084bed8d6f2'
p217
asI1486848430
(lp218
S'bda67d8a-abc0-4cd6-b61b-bc0e90747aee'
p219
asI1486838195
(lp220
S'95802e33-4a51-4993-bb11-80eeacd2e299'
p221
asI1486862777
(lp222
S'06ceb7dc-e190-45b0-9cec-b3d317bf7757'
p223
asI1486787011
(lp224
S'51e7ded7-e32b-4ccc-9861-dd51a58f92d3'
p225
asI1486842309
(lp226
S'669064d4-0ffb-4584-8b27-9eda5325b2ea'
p227
asI1486819785
(lp228
S'cc5b85a2-fa95-4a6e-9c14-9ef860471655'
p229
asI1486797258
(lp230
S'7e765b5b-a73e-4a93-a293-f4aaa42b58a4'
p231
asI1486864845
(lp232
S'f5c72c12-f1a3-4e3f-b624-b284451bcf1a'
p233
asI1486840270
(lp234
S'00322104-0d8c-464a-be63-2149d3ec89ab'
p235
asI1486821841
(lp236
S'431dfd00-6bef-4281-98d1-3213a636592c'
p237
asI1486846421
(lp238
S'16498609-d5fe-46f0-be8f-bd41266dc627'
p239
asI1486791129
(lp240
S'dd45eab1-4636-4d5d-bed7-cbcd87d67a10'
p241
asI1486824386
(lp242
S'dca5e00a-62b0-42f1-908c-05c9c08672e5'
p243
asI1486783568
(lp244
S'b922c2d8-45c6-4f08-b312-874263d34956'
p245
asI1486850531
(lp246
S'32b8d06a-ea2d-45ac-a844-c5a3ab8fc7c8'
p247
asI1486828009
(lp248
S'9dffccd4-7f4b-4c5c-875a-5d39f76a03b3'
p249
asI1486848492
(lp250
S'fcc748f1-a70d-45ee-98b8-80568d581ed1'
p251
asI1486825969
(lp252
S'1c1b8048-5881-4b00-9e20-96188148fd96'
p253
asI1486799351
(lp254
S'e1b809eb-9574-47f1-89b4-9b5bc4c34b0d'
p255
asI1486850474
(lp256
S'98b58865-d75e-4249-bc7b-d20783de45cc'
p257
asI1486819838
(lp258
S'78383f45-2aec-4834-aa99-48d7bc47e14f'
p259
asI1486809600
(lp260
S'482b74a8-4bc2-48ad-aebf-15e72f82cb02'
p261
asI1486854657
(lp262
S'fcdcf494-6918-45c4-b08f-61c5b365abd1'
p263
asI1486795267
(lp264
S'4f0b0798-177e-4fe6-af0f-438c94bc6cc1'
p265
asI1486815750
(lp266
S'852eec7f-6c18-45f8-b72f-9c08abcb95c1'
p267
asI1486785031
(lp268
S'0a02199f-cae2-4839-b451-fcc7165d7182'
p269
asI1486823947
(lp270
S'be2a5987-4303-4a1a-8f09-24e19ef4d98d'
p271
asI1486832148
(lp272
S'c7ea91d0-e96f-4f1c-9662-1535563c1ce1'
p273
asI1486830107
(lp274
S'48c64759-3c5b-4bfc-ab44-3a4f51c3ff90'
p275
asI1486791197
(lp276
S'28df6d63-dccb-4c33-8ee0-b681965013ff'
p277
asI1486854688
(lp278
S'64506533-24ea-442e-af62-c15e1fa13d1f'
p279
asI1486821922
(lp280
S'2f418c3c-c26b-47ff-9d91-f7b953a4dba1'
p281
asI1486864932
(lp282
S'82fe92a1-61d1-4165-bd87-613c936724a6'
p283
asI1486838312
(lp284
S'8aba7117-d3fc-4505-a37f-a6ee4cd1224c'
p285
asI1486819884
(lp286
S'1a5ba5f9-0ea8-4bf1-a8f6-9fa9f69f8f17'
p287
asI1486860848
(lp288
S'242345bc-0d2b-497d-9744-2d85f9c151ef'
p289
asI1486797367
(lp290
S'70f5397d-f58e-4217-8bb2-2cdfac57f561'
p291
asI1486823992
(lp292
S'7ded9640-9c87-4c57-b3d6-06eb102b3e70'
p293
asI1486791225
(lp294
S'4b5c6d44-58b7-4d5c-85f8-34ef035536b2'
p295
asI1486815807
(lp296
S'c67ad726-2a03-4a0e-b7ee-6dc4e49012eb'
p297
asI1486832192
(lp298
S'6b95ad73-037f-4e10-b352-d3377cfacaf4'
p299
asI1486785092
(lp300
S'59f676b3-ae02-4698-80a9-9588326f473c'
p301
asI1486805584
(lp302
S'06465f9e-61b0-44f6-ae38-fab1ab3aeef1'
p303
asI1486793302
(lp304
S'8d3927c0-255d-4a2f-9f14-909dd4411726'
p305
asI1486862935
(lp306
S'54c82e9c-328d-4c8d-9dec-fa01b34ebc2b'
p307
asI1486807640
(lp308
S'fa6b1ef8-c7f1-4d31-928b-3b14e77680b5'
p309
asI1486795353
(lp310
S'a6fca7c3-92c3-49ba-b69e-e28094a4fc17'
p311
asI1486848605
(lp312
S'd3e7e631-ad7d-4edc-9047-18fb27d42897'
p313
asI1486805604
(lp314
S'1e0021da-4130-4847-b7c7-ed2d8a5e9c54'
p315
asI1486835814
(lp316
S'4b13b46e-980d-483a-a86d-273f7ca14a3a'
p317
asI1486836329
(lp318
S'920c286a-e2c6-4361-841e-ebbedf0905cb'
p319
asI1486830187
(lp320
S'10f38cff-785f-4e0b-a1a2-e700bfa42bc5'
p321
asI1486795373
(lp322
S'448477ff-3f9a-4fa3-a2f2-4b4e05c16b6b'
p323
asI1486817908
(lp324
S'1c8ca83b-ae3f-453b-89a5-bb5029aed61a'
p325
asI1486807669
(lp326
S'924b4a62-8fe2-4bf9-9b50-90ebe1348eb2'
p327
asI1486799482
(lp328
S'fd2eefc3-f857-42f2-a5d6-fada4caaa743'
p329
asI1486852731
(lp330
S'9005e823-6865-426b-9e72-5fe09a806496'
p331
asI1486807676
(lp332
S'3973c71c-6e33-4dbf-ac5c-43e11d03b39b'
p333
asI1486867221
(lp334
S'de6f99c6-2c20-445a-9e36-fde48f8bbd3e'
p335
asI1486808171
(lp336
S'0a7c82a3-9da9-4959-8c9c-84769baf1ade'
p337
asI1486862981
(lp338
S'464a120d-06c3-47c9-93d5-05d8c6728925'
p339
asI1486830216
(lp340
S'a5585c3f-868c-4514-b13b-e4398c0fb255'
p341
asI1486817929
(lp342
S'425578a6-9184-40cc-85e1-172ceaf6e471'
p343
asI1486801548
(lp344
S'fa6ca2c6-4577-44b1-a553-90380dbe8167'
p345
asI1486859374
(lp346
S'f56a89f9-3494-48f2-a55d-f2282e128f3c'
p347
asI1486838424
(lp348
S'c041f523-25d4-4fab-97b9-0af713c12beb'
p349
asI1486809753
(lp350
S'38d1e082-fdc0-4ce5-a79b-8212f3db7876'
p351
asI1486836379
(lp352
S'947019fc-c81f-4cb1-8214-bffd3b5de6c5'
p353
asI1486836382
(lp354
S'6afcb1b2-2ba4-4a92-9e88-7bc88c443806'
p355
asI1486846629
(lp356
S'fcd667c1-04a9-4bc5-adf7-7565003650ab'
p357
asI1486836397
(lp358
S'e0609497-6e87-43d9-9c82-0d220017b96f'
p359
asI1486813874
(lp360
S'3fb3d8f9-4f9e-40e9-9e79-75f842affa42'
p361
asI1486846646
(lp362
S'fddccf51-ebf3-4ce4-bd45-e14d6e2fd807'
p363
asI1486830263
(lp364
S'5124ec8c-19a1-4b12-9290-443ae66a5a44'
p365
asI1486817977
(lp366
S'c0e19027-2fd0-439b-99f4-8d2c9106195a'
p367
asI1486838460
(lp368
S'16117b6d-9924-4f14-8824-25e5d8be2587'
p369
asI1486830271
(lp370
S'5e4bb590-fa1f-437b-8975-5d85219c1c3b'
p371
asI1486858953
(lp372
S'17c059e7-5532-4b54-9b52-a54dbe50f033'
p373
asI1486785227
(lp374
S'428a409a-8288-4976-afdd-e8a49e2765af'
p375
asI1486806136
(lp376
S'b9c26712-cb29-4a6b-bfde-f2942e9ac09e'
p377
asI1486835491
(lp378
S'8adde55c-ffd2-410c-9b04-c390dabf67ac'
p379
asI1486838491
(lp380
S'6c48d72b-ed43-428d-8e10-2cc4ed4ef3ea'
p381
asI1486863078
(lp382
S'f52d501f-e3e6-47bd-ba0f-14cce1b32366'
p383
asI1486792829
(lp384
S'fbb0fb97-0dbf-40ac-a227-804fe5299be0'
p385
asI1486822281
(lp386
S'33aa2d16-992e-493f-a38a-d0b8007cdb37'
p387
asI1486828275
(lp388
S'2f6d8e7a-e17e-4ff5-8f7f-e5ef4d13d920'
p389
asI1486785268
(lp390
S'91e9a84d-e737-4ee9-b776-16e982992ae4'
p391
asI1486787323
(lp392
S'cea11164-69fe-4693-ab46-9c890d009602'
p393
asI1486824194
(lp394
S'83839001-43c7-459d-8817-8e7b03925c52'
p395
asI1486863107
(lp396
S'2048d70b-8ab1-4153-a303-ae6cc095f3c2'
p397
asI1486854916
(lp398
S'46089100-ee0d-4563-bdc4-ec0daec37ddd'
p399
asI1486799623
(lp400
S'b95e827b-a4fb-4647-a34c-0d089a28d63f'
p401
asI1486785291
(lp402
S'2cc07fef-5580-48e8-bccc-9afbc8870ee3'
p403
asI1486799631
(lp404
S'3d15ec1d-465a-4a27-9df9-a20f50113127'
p405
asI1486846739
(lp406
S'42d89de9-1575-4642-8563-6ede403d5d5c'
p407
asI1486854958
(lp408
S'fe0151cc-6203-4da6-892c-92d1001be12d'
p409
asI1486848796
(lp410
S'3394084c-8016-4eef-ade2-401b7f666cb8'
p411
asI1486834462
(lp412
S'38f3efe9-21c6-4188-81cc-f82e1db5550a'
p413
asI1486816037
(lp414
S'e4e7f1d7-393f-4719-a6e8-5fe41313c174'
p415
asI1486809894
(lp416
S'8a072699-0f0c-498e-8799-259b837ac2ad'
p417
asI1486861102
(lp418
S'b18890f6-3f42-4803-93e3-19f2418bea18'
p419
asI1486810248
(lp420
S'266d119f-cf31-467f-992c-3cc770559f40'
p421
asI1486809906
(lp422
S'bdfe6efe-9783-458b-8c4e-04143a978071'
p423
asI1486830394
(lp424
S'a54a7773-35f5-4bbf-89f3-7a7a09556680'
p425
asI1486826306
(lp426
S'd215ab33-097f-4ee0-b33e-3496de26b23e'
p427
asI1486836552
(lp428
S'729be1e0-6b4a-4b22-bbf5-c3513d0a54a4'
p429
asI1486852944
(lp430
S'be9ebbce-b3c0-455b-b622-408c030bc682'
p431
asI1486836562
(lp432
S'448f4492-ed4d-4dcc-8ab9-777d83214382'
p433
asI1486841315
(lp434
S'0e35e8ab-0c8e-444a-8551-74afd1a00d00'
p435
asI1486850900
(lp436
S'9b96b009-1e9f-4879-96d2-62f3620a4df5'
p437
asI1486824250
(lp438
S'a3d3c3b0-eda4-4d11-9210-4cfb8d1dcc9c'
p439
asI1486807910
(lp440
S'f4f40e07-9d6e-494f-ae2f-129090ddd031'
p441
asI1486791527
(lp442
S'19a019e3-b37e-4dc7-8353-d17b1bbe6c7e'
p443
asI1486783339
(lp444
S'22236b25-31f9-4a54-ae63-ca2bb7da7acd'
p445
asI1486852975
(lp446
S'8d189258-ec65-49cb-90e4-f0c961a00944'
p447
asI1486795636
(lp448
S'66856059-254f-48fb-988a-1538892df97e'
p449
asI1486801787
(lp450
S'3ab0b102-f666-407a-a62a-ee031f982b13'
p451
asI1486789504
(lp452
S'6da86aab-cf01-4cc0-a734-5511ce5529a5'
p453
asI1486791557
(lp454
S'73b5b8b6-43a9-4e49-a8d6-7a1f9bdb93b8'
p455
asI1486838665
(lp456
S'41ba5cbe-3eba-475e-83f3-619478a22d21'
p457
asI1486850958
(lp458
S'00ee46cf-85ce-4988-8bfc-e687c53fba5a'
p459
asI1486797722
(lp460
S'5c171e67-db98-4b7d-98f3-b4f309f86b68'
p461
asI1486793627
(lp462
S'897b059f-552f-4591-9b6b-ebf92d6480e2'
p463
asI1486832543
(lp464
S'6ff55c9f-4ea6-40fa-970c-add5683d86f2'
p465
asI1486838689
(lp466
S'385196b7-2ebb-4498-b463-db426a05121b'
p467
asI1486832552
(lp468
S'10c009e0-869e-45fe-8be5-febd61bf0082'
p469
asI1486835872
(lp470
S'0532573e-4b9d-4519-b5da-1b3573ba0f2c'
p471
asI1486863298
(lp472
S'c53c2385-c158-4a89-b9d3-e5c8f1ab3dac'
p473
asI1486805495
(lp474
S'a80f7fa0-8292-4f8d-873e-6b3fc8bfead3'
p475
asI1486859213
(lp476
S'07cbbfcf-195b-42ab-aa71-b88fec288853'
p477
asI1486795726
(lp478
S'110e5726-eb32-4c49-bb8b-23d6f4b7e20d'
p479
asI1486822354
(lp480
S'25ccec73-b875-4706-af83-3feda9f759cc'
p481
asI1486828499
(lp482
S'67549ec0-79e7-4baf-bd7c-7b8b56db1847'
p483
asI1486853077
(lp484
S'fcdffafb-daad-4ac2-b943-bf38cf02fd05'
p485
asI1486820314
(lp486
S'2967d844-1d11-418a-9c7a-5e13c3b9f01f'
p487
asI1486832603
(lp488
S'1d80da4d-642b-4b8e-a9dd-10cd510ba19a'
p489
asI1486808028
(lp490
S'703e6e47-55b8-444b-9e19-6b377df6ec13'
p491
asI1486818271
(lp492
S'824bae5a-81b9-4f30-8269-13a47cca65ed'
p493
asI1486828514
(lp494
S'e3a2af58-74c2-4368-9aa3-be6c8037d33f'
p495
asI1486806877
(lp496
S'262aa870-1230-4a9b-aeab-90d069d62bb9'
p497
asI1486822377
(lp498
S'2540e396-9016-44d8-b849-0a2416191197'
p499
asI1486844906
(lp500
S'c87b25be-ed83-4b46-98ce-54d9a93fc71c'
p501
asI1486803962
(lp502
S'de0aba1e-b607-4273-a521-5b8b34cad917'
p503
asI1486785532
(lp504
S'05e70eef-396b-43cd-884d-d0f501d45185'
p505
asI1486820350
(lp506
S'20424202-24a4-4b87-a043-4ae6f33ee792'
p507
asI1486797824
(lp508
S'f5c8af69-71bd-4b5f-8884-8bd66e9bd349'
p509
asI1486824450
(lp510
S'e4fbb8b0-7e67-4292-bd8d-513366967e49'
p511
asI1486859267
(lp512
S'd6c74770-05c1-408d-895d-3b891fd7fcfa'
p513
asI1486857222
(lp514
S'7a62a80a-fafc-4cef-8e75-d472594bb63f'
p515
asI1486826506
(lp516
S'67146fd0-dc3c-479e-b048-9a0a0b2c8c7b'
p517
asI1486842896
(lp518
S'f8bd0693-c044-4fb6-a1cd-428b66cb40ed'
p519
asI1486806035
(lp520
S'b1f19fa9-1553-4255-b012-2d0269954235'
p521
asI1486834727
(lp522
S'c1ace76c-225d-4de6-bbcb-82fc1133637c'
p523
asI1486865451
(lp524
S'9c8f6357-ecc8-4160-91d7-e922a3127458'
p525
asI1486816303
(lp526
S'08319253-9528-4af8-8953-84c5ed667a8e'
p527
asI1486818355
(lp528
S'569c056b-0a0c-4756-8761-9fdc793a90c9'
p529
asI1486781492
(lp530
S'083de10e-9a06-4771-aa1e-b7049c1ed5a4'
p531
asI1486814261
(lp532
S'91813bbd-d199-43c7-aa4b-c331a03c4d6f'
p533
asI1486822465
(lp534
S'3b4d0701-5752-466f-b9fe-b9619d1dcef6'
p535
asI1486781506
(lp536
S'd48f3ba7-c85d-4f35-bdcc-c8c8d7899b43'
p537
asI1486813707
(lp538
S'fa484726-2a22-46ac-810f-09085bcc4a25'
p539
asI1486820420
(lp540
S'c7795624-5e80-443b-974a-4431eeea8c45'
p541
asI1486833506
(lp542
S'2bb45c6c-d91a-47e7-b19b-6e6c97d05d63'
p543
asI1486851151
(lp544
S'4f8ed047-b918-46ec-8fd3-6b0650ced1ed'
p545
asI1486836816
(lp546
S'028583a0-66f7-44d5-bbd0-aca66175c11c'
p547
asI1486836831
(lp548
S'4c6943e5-6c54-4bf5-ae02-7c898743d5aa'
p549
asI1486789736
(lp550
S'5bfacda8-57fe-49fa-81ba-adf1f3d950d3'
p551
asI1486816362
(lp552
S'0d47159f-da99-4c96-8129-b695ee66c193'
p553
asI1486812267
(lp554
S'b9f0ec78-94be-4f5e-9108-56d75e82f96b'
p555
asI1486828654
(lp556
S'04af7753-6465-4618-99f6-b7c2becb02fe'
p557
asI1486788797
(lp558
S'8c66dfa0-f112-4e1d-8152-8adf6292e6f7'
p559
asI1486812280
(lp560
S'c728da83-abaf-4e2a-ac6b-f3b154735f64'
p561
asI1486843413
(lp562
S'974b0fdc-35a1-41db-b8fc-80276d5e66a8'
p563
asI1486849155
(lp564
S'24231b2f-617b-45f4-9200-e3500596a0fd'
p565
asI1486840967
(lp566
S'3a04153d-77c9-4f2d-aeed-b978dc5e611c'
p567
asI1486843016
(lp568
S'98c365ba-5031-46b4-a0a2-3fb1647bed7c'
p569
asI1486828681
(lp570
S'287d0ff6-03bd-401b-b685-55f01f33b3b2'
p571
asI1486867597
(lp572
S'a6896ec8-8505-49a5-b5f1-c5b330927fe2'
p573
asI1486804114
(lp574
S'5f039ee0-31bf-493d-b86c-2b122556c2b7'
p575
asI1486826646
(lp576
S'4cc86104-ea3e-4e56-b38a-9d89a3b06876'
p577
asI1486857384
(lp578
S'0a49a9ed-4f5c-4661-aaf4-6bc87e2fa128'
p579
asI1486795950
(lp580
S'4668daac-2b2c-4b5d-8237-e7b544aaacfd'
p581
asI1486836917
(lp582
S'229e9802-3fc6-4633-967e-1cd94ba6d07a'
p583
asI1486785721
(lp584
S'27b2f3fb-d283-43a5-895e-b3de3fc44419'
p585
asI1486828731
(lp586
S'e1dc96d0-6455-471f-94c3-d594e039771e'
p587
asI1486838982
(lp588
S'b1b954b8-abc0-4074-8ee2-fd698d463cac'
p589
asI1486861511
(lp590
S'63458891-d364-4674-876a-056583920880'
p591
asI1486863565
(lp592
S'a9406d0b-b16a-4c1a-9377-079f2352f3dd'
p593
asI1486806230
(lp594
S'2f2b668a-9d07-443f-9bcf-0043ed8ffaca'
p595
asI1486787805
(lp596
S'dc3ab5cd-f87c-4b28-8642-34e5e0a6fc76'
p597
asI1486816487
(lp598
S'1748567e-2d3d-4c19-a319-f39054f20806'
p599
asI1486863592
(lp600
S'10f5ef9c-402e-47d7-9cb1-200bed37b1b6'
p601
asI1486789866
(lp602
S'3970750a-f1d0-4d91-ba85-88ac9d5fe994'
p603
asI1486826738
(lp604
S'08631e10-c87f-4bee-93b9-48357021c7de'
p605
asI1486800115
(lp606
S'83f8b3fe-dd34-4a80-a938-6dcea1ede90d'
p607
asI1486818556
(lp608
S'7af8bca1-0c2d-451e-8e8d-7e04f45caddf'
p609
asI1486818557
(lp610
S'a223c64f-de45-435c-999b-7b5aa6076944'
p611
asI1486782678
(lp612
S'7c302a14-ed5c-4d24-90fa-9b2a4b407c47'
p613
asI1486808326
(lp614
S'36f783d6-d0ef-43e6-a8b4-3fe151443469'
p615
asI1486832904
(lp616
S'199c13e6-9644-4918-a47a-22b7718bf3d4'
p617
asI1486855433
(lp618
S'a315a99a-7820-40e0-8b36-8d97eea68144'
p619
asI1486785806
(lp620
S'f3a701d4-e99a-4f73-aeff-b1bdee577bb4'
p621
asI1486843155
(lp622
S'5434990e-c450-4625-9744-e9257a0785c7'
p623
asI1486831976
(lp624
S'5936ae09-e90d-4bd8-a96e-1fc3e61af35b'
p625
asI1486865694
(lp626
S'b5a097d2-b668-42fa-aea2-ec3e2b37e9d8'
p627
asI1486812453
(lp628
S'006f5138-51c6-484a-b672-89a841711179'
p629
asI1486865707
(lp630
S'9415d8fb-f486-4a70-807d-010ec1dc7a34'
p631
asI1486867767
(lp632
S'211448f6-6219-499b-93c9-dae8ec731505'
p633
asI1486825695
(lp634
S'08bd3e85-bdfd-4b14-ab7d-d4a2cc765a40'
p635
asI1486863676
(lp636
S'fae83fd2-aae7-4335-8158-161f7b782d1d'
p637
asI1486794045
(lp638
S'fd2b0ca9-5301-4c42-af73-fe4b923abd20'
p639
asI1486794046
(lp640
S'b648e29d-c8db-4586-8ac5-d8482d7f6982'
p641
asI1486781759
(lp642
S'96cce0cf-a8cd-4b25-a5a8-89d8ab98eeb7'
p643
asI1486843200
(lp644
S'8cf4fdf7-4bd6-49d9-b11c-184802b93f3a'
p645
asI1486831439
(lp646
S'e48910db-7213-408e-b2cb-791f2cc0f017'
p647
asI1486851396
(lp648
S'35c60f37-a0ef-49be-88dd-2505cf404c3a'
p649
asI1486812489
(lp650
S'db132531-f1c0-43f2-8c4c-595987be95ec'
p651
asI1486822731
(lp652
S'd4f7c077-5317-49ba-ba4c-3e52fb44b44d'
p653
asI1486859597
(lp654
S'ab41fe70-ebf2-43d9-80ac-72b61a3e11cd'
p655
asI1486829453
(lp656
S'8039a245-eccb-400e-87cb-096cb04d1e55'
p657
asI1486855506
(lp658
S'eb2f8f1b-441b-4529-8ca0-dd534dd859c0'
p659
asI1486853459
(lp660
S'ac3c4d29-788a-49d1-b595-e20ed3584cab'
p661
asI1486782339
(lp662
S'9bacc49c-7e10-4748-8448-81c5d0094ebd'
p663
asI1486853471
(lp664
S'aef6ca07-c28f-40c6-b625-d3c36848181f'
p665
asI1486861378
(lp666
S'ea2d7465-8869-4fd6-a08e-1873e7586af0'
p667
asI1486839141
(lp668
S'432658e8-0702-4f54-bc57-f8fe18bfa649'
p669
asI1486792038
(lp670
S'083f5913-2ac3-4969-96b4-5fbf981155b5'
p671
asI1486801025
(lp672
S'd2ee68c5-65d4-4087-9ebd-b855b493cb78'
p673
asI1486839146
(lp674
S'930bacaf-4a2e-47fb-821a-fb8640356ce5'
p675
asI1486843246
(lp676
S'7dee6440-3cd6-403a-95dc-eeca1e891c79'
p677
asI1486804337
(lp678
S'a70fac52-382b-4403-bc8e-c1d306fc683c'
p679
asI1486787956
(lp680
S'd7d59f2c-2563-4ab7-9b21-d37815b61514'
p681
asI1486806390
(lp682
S'8edeb56a-65a4-460a-b9d9-0b2f1cdd1f00'
p683
asI1486820729
(lp684
S'b5c8d1e3-66b3-48ad-bce2-abcb23927209'
p685
asI1486851458
(lp686
S'7b9567ff-5550-4cb3-ab05-bc3b05e9bf3a'
p687
asI1486855557
(lp688
S'd50ebaf2-c747-47ae-84e7-e34581e0006e'
p689
asI1486812553
(lp690
S'84919a88-ce2f-4f08-ad8c-bb6f23500ac1'
p691
asI1486837141
(lp692
S'118d59b2-5142-4af3-b999-494680ea9506'
p693
asI1486867862
(lp694
S'2c4d1e9b-f9c1-4254-8647-eec85978e2a3'
p695
asI1486790039
(lp696
S'00986a2f-bcdc-49d3-99e5-f15264bbb687'
p697
asI1486835097
(lp698
S'1d8bb8c3-396a-4ae1-a34c-24757e01aa83'
p699
asI1486857632
(lp700
S'4f2f5530-19bc-44ee-aed9-73c78c068e52'
p701
asI1486865829
(lp702
S'f5347119-39b7-4bbe-a95a-4dc02eccfdc4'
p703
asI1486826919
(lp704
S'1b336285-1336-4db5-a26c-f8de4ab6702e'
p705
asI1486853546
(lp706
S'6bb42866-72df-46d9-bbf0-57481706f3df'
p707
asI1486851501
(lp708
S'337222c3-6a69-4096-91cd-5adcc9b5cdd2'
p709
asI1486814644
(lp710
S'8d91e63b-b67f-4fda-9cc3-b1657c299f23'
p711
asI1486860533
(lp712
S'fd94491b-b357-4a3c-a77d-54422d84d0ff'
p713
asI1486835138
(lp714
S'5cc50665-a420-428e-b252-db8a763dc325'
p715
asI1486794182
(lp716
S'dd6b25ad-ef38-430b-8c8f-f1fa29adcc73'
p717
asI1486796236
(lp718
S'b5f247c1-810d-4022-b534-0ffe6f0d320e'
p719
asI1486826962
(lp720
S'49eaa7c1-c666-4c99-ba10-2339ab772906'
p721
asI1486865879
(lp722
S'1c8b7dec-6c79-4dda-9487-0a02b9acc8a9'
p723
asI1486859736
(lp724
S'44eb0db1-d6f2-4f61-9d14-11aec48c2b5e'
p725
asI1486820825
(lp726
S'bbb457e0-ad75-4fb4-9981-e5dea92d0ef3'
p727
asI1486835167
(lp728
S'ff6b07dd-f9c2-42c9-a32b-dceddc8ee449'
p729
asI1486859747
(lp730
S'dd53d8ef-4642-4cf7-86be-b035ff53ab9f'
p731
asI1486829029
(lp732
S'e069c31a-2cb4-438f-9258-21e9ffba243a'
p733
asI1486859751
(lp734
S'0b2ee054-861a-4b8e-8cab-2f94624554a3'
p735
asI1486786024
(lp736
S'20e7eb1b-e356-4ae5-b876-03bb155aa6f5'
p737
asI1486812651
(lp738
S'68f39924-923e-4ef0-ae5e-e492eeb14b6b'
p739
asI1486794221
(lp740
S'eb488aad-dfbc-4171-aaf4-e0d9e8e1b3f7'
p741
asI1486841326
(lp742
S'8cd232f8-4039-4f44-a63b-d2dbdcb17f97'
p743
asI1486839037
(lp744
S'61a325fe-70ce-48b2-b747-5f9c8c8615c0'
p745
asI1486796272
(lp746
S'81299a8a-e541-45a2-b9c4-c7698a15cb4b'
p747
asI1486810610
(lp748
S'fb5c9652-067d-4c11-8d15-56d77a4bea85'
p749
asI1486814707
(lp750
S'9f60b8dd-e108-467c-8954-2359793d6049'
p751
asI1486808566
(lp752
S'75e5852f-2bc1-4728-84b7-1bd7c4ae9774'
p753
asI1486824951
(lp754
S'ddd6a7ab-6ba0-4b41-a720-4bcf3c236992'
p755
aS'8d9c5b8e-5caf-4d76-949d-bc199105d2a1'
p756
asI1486855676
(lp757
S'9b488295-3b38-49da-8ac1-9cc87b6f6c57'
p758
asI1486829053
(lp759
S'bfe804db-a364-474c-9080-d0039945fe98'
p760
asI1486823339
(lp761
S'e9baf65f-f038-4fae-90ae-beb63dee03dd'
p762
asI1486865929
(lp763
S'a04250da-5553-485f-8466-771f8f006b47'
p764
asI1486790164
(lp765
S'5a6a7591-d2f2-4b85-b60f-d831c4e76562'
p766
asI1486790165
(lp767
S'7ca8d860-1445-4f69-8024-6775729b2d86'
p768
asI1486849560
(lp769
S'60e4f53c-98f1-4eb8-8ec2-6a9fb6e82a2c'
p770
asI1486788121
(lp771
S'30e73373-40ae-4fb0-90e8-efbb5f29b912'
p772
asI1486851617
(lp773
S'63f42d34-0ca1-4697-a260-df2a6d3f6c2e'
p774
asI1486857764
(lp775
S'ea9848bc-8954-4958-8135-a6c96de9b157'
p776
asI1486836998
(lp777
S'c577a85d-da29-4d64-9c7f-2742b911bfcb'
p778
asI1486843430
(lp779
S'12d7075a-f312-4237-b87d-37c94c445c0f'
p780
asI1486810668
(lp781
S'6c0682ca-7010-4651-9e8d-97f18ae95307'
p782
asI1486857781
(lp783
S'1cf10d29-b49b-4a5b-8be9-27602c6b508b'
p784
asI1486847543
(lp785
S'e7b48c95-90cf-44ce-9737-e69af192f389'
p786
asI1486835259
(lp787
S'bccd8aab-c3dc-41b6-8ed4-a7a4c2f02abe'
p788
asI1486798397
(lp789
S'81385c1a-16c3-476c-966f-3d8aeec84405'
p790
asI1486835270
(lp791
S'dafb208f-2e47-4880-abcb-5fefa0f28374'
p792
asI1486859848
(lp793
S'4cb73927-a9b6-4360-b2ff-54080f85eccb'
p794
asI1486847561
(lp795
S'b7c06633-e801-46ab-b8d4-cc6bcae48bcb'
p796
asI1486831179
(lp797
S'c76a4951-54ed-4acc-aaba-0c9a24cc72c1'
p798
asI1486859852
(lp799
S'4f2c84c2-18c5-4051-811f-559843c36995'
p800
asI1486835280
(lp801
S'd4351e88-72c4-4f42-94c8-babc45b87eb5'
p802
asI1486782044
(lp803
S'61181a36-27a7-4048-945b-723a769e4856'
p804
asI1486861924
(lp805
S'820ce256-0465-4323-8031-9ba30ce97743'
p806
asI1486814821
(lp807
S'0279ea65-90f0-4095-8cab-2820cc74fea2'
p808
asI1486809020
(lp809
S'6ed1b920-b9ff-443d-9263-a9a5ef00eb13'
p810
asI1486861938
(lp811
S'1bcfe89c-c230-4fb2-9584-9a7af158834b'
p812
asI1486810745
(lp813
S'e1e9bd23-b2a2-40f1-869c-3262db0ea68a'
p814
asI1486800507
(lp815
S'8a5cda45-6135-4bff-b456-6fcdf04c9403'
p816
asI1486823037
(lp817
S'ee5dec40-d393-4805-b6cb-baa5248f25a3'
p818
asI1486802560
(lp819
S'c52f291e-e1bc-4154-a859-b54da05c30f2'
p820
asI1486857862
(lp821
S'325de86e-9c2e-4d01-8924-599dd55c8d90'
p822
asI1486837388
(lp823
S'09b637c0-5b59-4951-8a0a-09abea3067ff'
p824
asI1486847629
(lp825
S'ae597b8d-faf2-441f-924f-415d23851754'
p826
asI1486866073
(lp827
S'7cffd5f1-790b-4dbe-8dea-b1670bf75185'
p828
asI1486837408
(lp829
S'e7d2486f-b1cd-4e50-b5e7-1e327d34e01e'
p830
asI1486829219
(lp831
S'e1b812ab-3a10-4ff0-b2bb-53bd6c55a4b3'
p832
asI1486851749
(lp833
S'68a233e3-2fb6-49e8-a354-265444137cff'
p834
asI1486816936
(lp835
S'c8b5bf26-23d0-43dc-8850-0c1108d2e82f'
p836
asI1486841519
(lp837
S'6757d3d8-04bd-4fc8-b3ac-b3ede97640c4'
p838
asI1486782129
(lp839
S'17457812-c2b0-4ab4-bf4e-a8a9a2d94df7'
p840
asI1486802613
(lp841
S'53c8a901-aba7-4420-b870-3579dc6267dc'
p842
asI1486784185
(lp843
S'9e845778-300c-438c-b9e2-354b5799f555'
p844
asI1486786647
(lp845
S'd1f5717f-8b37-44fa-9c67-9ff69e1aa876'
p846
asI1486855872
(lp847
S'7cfbe497-a413-4e48-8136-fc6bd3861e27'
p848
asI1486806726
(lp849
S'f49e21f8-d692-41d2-b36d-387c0572c82c'
p850
asI1486812874
(lp851
S'1e3379cf-b7e6-4cc8-b18e-bb73b35779fc'
p852
asI1486798546
(lp853
S'9480924b-447b-4785-9aa5-7035e3198757'
p854
asI1486837459
(lp855
S'd8592798-0d91-45bc-adcf-3fdf86339da2'
p856
asI1486833367
(lp857
S'8a7bb2ed-77b7-4ab1-a59e-08efc164232b'
p858
asI1486849754
(lp859
S'844e6c18-77a9-447e-a136-d4363cadf5a9'
p860
asI1486835419
(lp861
S'31aa3100-1f40-4690-8144-25c39a501015'
p862
asI1486819038
(lp863
S'b4a845b0-1aeb-41a7-9ea1-1a16c21c002c'
p864
asI1486782179
(lp865
S'dcad7d16-9049-4cef-bf09-40857c527077'
p866
asI1486784238
(lp867
S'0ce031df-50a6-47f9-9d9a-74f1912c105a'
p868
asI1486857981
(lp869
S'ef484548-711b-4dc7-b97d-b3cabb0ba2f8'
p870
asI1486786304
(lp871
S'6ba253ca-b62e-41f7-b631-e5640c735452'
p872
aS'aa314331-d88c-4640-b403-ed769814f8cb'
p873
asI1486800647
(lp874
S'5fd61360-4d65-4a63-9fba-d682a6a8a986'
p875
asI1486860041
(lp876
S'54beb50f-1c99-4354-badb-1fad1e34e6f4'
p877
asI1486787203
(lp878
S'1cbdd667-1ec1-4d77-9a51-9476e51ece18'
p879
asI1486849817
(lp880
S'93ade622-1e09-4386-9d56-0c4bd6b7d25f'
p881
asI1486790430
(lp882
S'dea1bf0f-d2fa-430c-a12b-d8ac244a121e'
p883
asI1486823203
(lp884
S'0fe4a2c6-e3b5-4349-9607-1d1145d897fe'
p885
asI1486845739
(lp886
S'800d2709-2a4f-447a-90ca-c43744e258a5'
p887
asI1486808876
(lp888
S'bc5fa8e9-4de8-4a1a-9ff0-03587e346339'
p889
asI1486784302
(lp890
S'd0192583-aa70-45c2-a2a7-053a4a25ef10'
p891
asI1486841648
(lp892
S'c31027e4-d633-43d5-94a4-a0aca2688c0f'
p893
asI1486821174
(lp894
S'ac070935-f590-4050-93a5-861a5a3a6154'
p895
asI1486788412
(lp896
S'582b160f-64fe-42ed-a8b4-34b099400820'
p897
asI1486853949
(lp898
S'f3e2300a-164b-42c4-a76c-035fde3b165e'
p899
asI1486806854
(lp900
S'85ff050f-45e0-4ca4-9e9e-00a12017f10a'
p901
asI1486854796
(lp902
S'f0abea42-cd54-4614-9250-cf966d61ecdd'
p903
asI1486835535
(lp904
S'de8832ba-5ff5-466a-9eeb-ae627f86d5d8'
p905
asI1486853970
(lp906
S'6ffbe321-b73b-4214-b15c-e4e557ff3214'
p907
asI1486858070
(lp908
S'f62b02ba-21d2-4f89-9054-a5b4eb628706'
p909
asI1486864215
(lp910
S'a0361e56-41d0-4588-8f41-941942531ada'
p911
asI1486841693
(lp912
S'7a74b765-4737-4c16-a5b5-86449b112375'
p913
asI1486786400
(lp914
S'50704095-d872-416d-93e4-9ff8efb30a8c'
p915
asI1486790498
(lp916
S'74009233-a979-4f3c-86e8-f134baf09d80'
p917
asI1486837607
(lp918
S'8be5a016-b42d-4d0e-bfa3-29ecd50795e3'
p919
asI1486800744
(lp920
S'28b47be8-01d2-45e2-bd61-c33214560060'
p921
asI1486831466
(lp922
S'25ea9dfb-292a-4f1d-9dae-bf0d333cf1d2'
p923
asI1486829419
(lp924
S'09c1b879-c501-4bf5-ba99-2414747a72ba'
p925
asI1486866285
(lp926
S'2903b03e-3302-44eb-b472-5cb051d52089'
p927
asI1486858102
(lp928
S'94053a3c-0f62-4f58-9eab-7c0633d856e3'
p929
asI1486808955
(lp930
S'5b8ba5dc-3271-494c-92b4-af28d77ad0a8'
p931
asI1486821247
(lp932
S'01881f67-5b53-4585-b290-95c18087a8dc'
p933
asI1486860163
(lp934
S'2623edd7-1c04-4b5b-8853-56aba4eebe58'
p935
asI1486841733
(lp936
S'3936501a-29f4-49e0-9532-dc08bd7f45f2'
p937
asI1486841735
(lp938
S'82018475-cbdf-469a-a72c-ac989afc5bda'
p939
asI1486782344
(lp940
S'5f12b5ce-94e1-4430-b9a6-0e961259d621'
p941
asI1486804972
(lp942
S'77ef9606-8f16-495c-b657-6ad78cada4fe'
p943
asI1486849931
(lp944
S'63c31992-410b-4966-ac97-381662c13347'
p945
asI1486802829
(lp946
S'31212d45-bae6-4f20-82ab-13d04fd1fb3c'
p947
asI1486827411
(lp948
S'e8691fef-8e88-4b70-b94a-cbbd20924e51'
p949
asI1486829465
(lp950
S'c80df95f-13bf-422e-a77a-1054213ec0a7'
p951
asI1486837659
(lp952
S'7995dd75-4070-4b8e-af83-7cc5af9fbdc7'
p953
asI1486839708
(lp954
S'f4a5b590-552c-4bdf-9c2a-5ee01b9a1c0c'
p955
asI1486862247
(lp956
S'44d48ab2-ce73-4706-9bea-01c6e7ccfcc3'
p957
asI1486823336
(lp958
S'003b6bfa-c12d-491b-8d62-99d3b193e806'
p959
asI1486782379
(lp960
S'fea852e0-bc25-446b-a8ab-50a4361a6b69'
p961
asI1486800817
(lp962
S'f82106d2-5864-47a5-bf80-5289e1273d8c'
p963
asI1486794680
(lp964
S'06dcbd09-d6e5-4334-b88b-9679f28d04b5'
p965
asI1486835644
(lp966
S'ed7b74fa-d7a7-43b4-be86-d1c39b929fd9'
p967
asI1486855840
(lp968
S'08a498c1-d87a-4c7e-b98e-435c07543ddb'
p969
asI1486827460
(lp970
S'cce8a3f7-75e5-449c-ab35-3ef97f256489'
p971
asI1486811077
(lp972
S'f442f0af-0c92-40c8-ba16-3b3a2cc1bfea'
p973
asI1486823366
(lp974
S'a69aa7e8-4cd5-405d-8766-8b54f9cc0ac9'
p975
asI1486860242
(lp976
S'4a5f7708-3b7b-4049-aaab-9973d15bf20c'
p977
asI1486831573
(lp978
S'1ff31d57-9d89-4bc7-a734-fe14a5c3c095'
p979
asI1486831575
(lp980
S'0e90045c-64ef-4529-8b9e-290e7367bafe'
p981
asI1486841816
(lp982
S'1a45a412-5cab-4595-8df4-b2f605ea3377'
p983
asI1486825442
(lp984
S'c14f1e39-4a30-49af-b0a4-498339398d88'
p985
asI1486811114
(lp986
S'dd01bf8b-ec2a-4f0e-89f4-f1ff54b7d1e7'
p987
asI1486794731
(lp988
S'56827da8-9e02-4052-9289-82766e3d805a'
p989
asI1486839788
(lp990
S'e46eb66e-909f-4c60-9eb2-9c833eb549d2'
p991
asI1486802927
(lp992
S'f1aea42a-69e7-4fe8-8520-ddc154384ab5'
p993
asI1486860281
(lp994
S'8e2e8e8e-df90-4f6f-b5ce-f609af7f2884'
p995
asI1486866430
(lp996
S'67b1d87c-679f-4b49-9251-c034d93379c8'
p997
as.