(dp0
I1487483821
(lp1
S'a33081c0-d171-4481-a526-a1e31df6fca5'
p2
aS'b7400c89-87da-4f0e-b507-2f8b3e433950'
p3
aS'c52ab0b3-af26-4c9c-8256-80120c1f331d'
p4
aS'cd3d372b-cb62-441d-8796-f18a9135e470'
p5
aS'bb49a97a-4e58-452b-bcbf-b5fd64758def'
p6
aS'5e96628b-276a-4369-bca6-522e75734ae6'
p7
aS'505137ce-cbcf-4afe-99aa-ec5bb0a37965'
p8
aS'8d089dab-7bf0-4dc8-b441-8f9ceed6c50b'
p9
aS'2c9eaa20-3b1f-4a68-a776-a63e654c847a'
p10
aS'2739f107-7543-4259-93ac-b3b4a6c86180'
p11
aS'56d96216-453f-46bc-88d6-428de1360f7e'
p12
aS'e80b2f61-4401-4275-a4d4-65c9f683db81'
p13
aS'7a95a075-beb2-4be5-90a9-812500d6a0bb'
p14
aS'b04f4360-4f4b-4120-9c7d-521808ebb622'
p15
aS'9e2bc2df-b6ba-4299-8f3c-935e844ce50c'
p16
aS'2daedf19-9a53-4030-8c9c-e7ae83323150'
p17
aS'4a1132eb-3489-477b-b082-49298fd95afa'
p18
aS'78122f27-ce84-46eb-89e6-a626cc3567e3'
p19
aS'8b9ec3bd-0d93-40b5-8aca-a6ef55dc1921'
p20
aS'aa0c747a-0eea-4a30-a803-aea6a756bba3'
p21
aS'6a03ac53-c51d-4cef-a32e-52a3e6099dc0'
p22
aS'bf0066ed-6118-44dc-b18e-8b17a8e1d516'
p23
aS'f22d6a18-3129-4abb-a17a-47342fb18ade'
p24
aS'2801550a-fa66-40eb-b45c-160416a24e7f'
p25
aS'4595028a-50bd-41c9-9ac9-277ada5263d9'
p26
aS'83d26cb5-4238-4832-82c4-ef487c5ac840'
p27
aS'dbd2d1e4-8688-41e9-97f4-7087684d0b67'
p28
aS'2e48d2fc-c1ab-4aab-aac7-aa2a34fe0048'
p29
aS'd7260243-c228-42e0-a7d6-92bb282cc5d2'
p30
aS'0df5aaf1-dd4c-4245-a111-7ae8d1431aac'
p31
aS'cef4efe5-e00e-42a8-a666-4cfbd30a7f83'
p32
aS'7d449f7c-a909-4599-a90d-a331fb02f0e2'
p33
aS'ae274207-e986-4f97-8c2a-33781d81d45d'
p34
aS'6063aa80-d106-4f14-ae1a-5a91d1addc64'
p35
aS'f14be85e-a072-4564-9238-147602fa64bb'
p36
aS'af0085cd-31da-497e-9f3b-a1d37e4cf9c7'
p37
aS'c8d98c18-13fc-499d-baaf-dc7f04fb69e7'
p38
aS'75e37c5f-85ba-45ff-94e6-5cbb98ec2861'
p39
aS'52f9066c-d92d-4a3b-a616-18b671e308e6'
p40
aS'1a4eb28d-afc4-42e3-9da1-33272b385978'
p41
aS'4db8c66a-470e-479f-8cbc-b37ad48b98a8'
p42
aS'c8b93fc2-d4a5-4379-a38f-09692b3d9663'
p43
aS'549e1e3d-5f23-42bd-9b36-695b0137242c'
p44
aS'cd66ce57-6514-421f-93a3-766e84b5c9d6'
p45
aS'681a77ea-9331-4960-be13-0d7286f71556'
p46
aS'149d087d-2f56-41b2-923d-a445e3bbc89d'
p47
aS'b79a30cf-d2cc-4ca9-8f5d-43ca915e8a36'
p48
aS'99e6e148-7b1d-4f8b-b680-b135ca5fc1de'
p49
aS'4e881e34-90af-42fc-8dd6-2150c0bdb7b0'
p50
aS'fa2bd97d-db37-4b32-84a8-be5057095ede'
p51
aS'49e50d6d-3d10-4927-a40a-b6bda2e3e70a'
p52
aS'54be4c90-9e3d-4e39-82f7-bddbb412fa11'
p53
aS'f39a22f4-7588-45ee-be9f-f63a763f2178'
p54
aS'eeb9b664-7567-4bbc-91ae-1942e8abadd3'
p55
aS'191a1ba0-5d64-48f7-943f-636bfb81feec'
p56
aS'50352346-95c6-4727-a2ed-9c39fb791cc8'
p57
aS'f68b686b-3ae3-4695-9fd6-bbedd014ddc2'
p58
aS'a6ff841f-3640-42f4-a460-9ec2f652bf49'
p59
aS'a0af4be2-3de0-43b3-a5b0-c74cd3062122'
p60
aS'01c4ef76-d227-43f4-b81f-2cd6856ee604'
p61
aS'ff2e6d4f-069c-47ca-abb2-9e1ab0c6bd09'
p62
aS'fada09fd-5977-4dab-907f-d6280ff2bee8'
p63
aS'01c04ddd-b911-4ad8-8a9d-55dc0aa5574d'
p64
aS'0f23460e-6fdb-4fc9-8156-e2ac301d5a3c'
p65
aS'668eb8c9-fd58-45d3-ad59-1bb49579f048'
p66
aS'166b3df4-c8b6-4fcc-8138-04271884017d'
p67
aS'7f0b6f22-5bda-48ec-a2d4-6c4e4cbe7206'
p68
aS'3c7ab719-05ac-4416-a52d-0725292fd28e'
p69
aS'9455bdf6-49a7-4bcc-86fd-c75b11636c30'
p70
aS'027d3087-a269-4ff3-9cb8-3b94389d5543'
p71
aS'b120ef74-87a1-41b1-9b9a-08d1e2d5cb15'
p72
aS'6301bf85-9af9-48d0-aef7-54eb7549bae2'
p73
aS'a4751dab-3ccd-4ba1-8f6b-b2e0799c0c79'
p74
aS'e7295445-867c-482c-99f0-1afc1422882e'
p75
aS'bd3674a2-c366-4bad-982d-9d2da87f6002'
p76
aS'd9641b79-f9c7-4148-b213-b97ff77dae2f'
p77
aS'2428db22-3fde-4687-b764-35252cc5926f'
p78
aS'ab002409-732f-4abf-a857-9a8d76616523'
p79
aS'9118b0e3-d11f-4cd1-a9aa-cb051ebd47ed'
p80
aS'caa2e306-4d7a-4a32-b297-d5126d9a4f28'
p81
aS'03d5ce9e-041a-4884-a5eb-cf3be9d1a2b4'
p82
aS'134c9ebb-5ab5-4747-a03f-9b95c872f830'
p83
aS'ac6535ce-d864-4345-8958-ce5fcd2be5f4'
p84
aS'411187fa-3d95-475f-ac04-dcd55cedca51'
p85
aS'ffab9474-b874-4f1e-982b-c26a8b156bdc'
p86
aS'54e95e80-146f-4454-b96c-75e3b187f10a'
p87
aS'8b537ff9-f806-43cf-b9c6-65e2862b59da'
p88
aS'5a917946-7e6d-412c-b65c-1cfb967e281a'
p89
aS'f45b10fc-2257-4cda-9614-07f91d3aae1d'
p90
aS'2363beee-46aa-432b-91cd-0c45bced03c0'
p91
aS'90fb8e45-b9ce-4018-ac6f-908a5f45a52f'
p92
aS'a26592ca-6fc5-4877-8807-f41a3fee945e'
p93
aS'344ac99a-024d-4e7a-947e-aa16a53b6f59'
p94
aS'2598ef44-ca60-4a63-adcf-38cb471461dc'
p95
aS'781789f6-8a40-44df-bffb-6e18be93536b'
p96
aS'20bc5931-0309-4459-a069-0f629ecf5ce7'
p97
aS'072dba7d-61f2-42a3-9a21-ab17e0224bdf'
p98
aS'e282f2d4-53e3-4cf5-aa13-4e14cb37026e'
p99
aS'fb63393a-4dc0-4612-9ec4-d84dd51c8956'
p100
aS'3bbe9eae-5389-4728-97cf-1634addb1eb6'
p101
aS'5e4e3505-02e4-4ab1-8636-157d87ddb994'
p102
aS'50219dec-7a65-4aa9-a87e-16027177261a'
p103
aS'cdb36a8d-ea17-4e96-8781-738f15197c22'
p104
aS'19f485f1-a213-42de-8449-d106c3e19a3d'
p105
aS'01a0722f-b832-4ef5-b919-0f6d16bc857f'
p106
aS'd7261c45-b835-4233-a1a6-39306249446e'
p107
aS'efa76a55-aaea-4299-9f4e-f4c156c91091'
p108
aS'817eb359-c73f-47b1-bd60-e97b5ab4f48f'
p109
aS'60f01b70-df13-416e-a376-22b42dfadbe4'
p110
aS'f3d27749-6a22-4332-8228-70e5eda24489'
p111
aS'934e2123-432d-4060-a16f-0054600da36a'
p112
aS'cb233090-d368-43b8-bc0f-f05a6440c47e'
p113
aS'a02dc815-5f3e-4c2f-ad2a-d1fe98f2cff4'
p114
aS'a7b6ea59-f6b4-484e-90ff-b3feea371edb'
p115
aS'7d6e7396-4cc5-4957-92ce-558da9358d5e'
p116
aS'213d419b-d694-47a8-9be8-6b0495099a5d'
p117
aS'202ac46b-316e-4684-bb0a-30093409c063'
p118
aS'3e80f97b-3c5e-4859-b74b-a3c7a2aa990b'
p119
aS'a3a2ad25-b0f8-4e44-92bf-11b29f0e0805'
p120
aS'ac43eaa4-e6ff-49a7-b6f3-a9e16bd49124'
p121
aS'f91065b5-d53e-47f6-95ae-86b1ce0c3bdf'
p122
aS'21d8eaa1-a275-41db-b776-3680be2c8139'
p123
aS'063ab767-467f-4e8f-bc2d-10fd489b18e9'
p124
aS'20e26901-a6a1-4803-8634-2312c461e8db'
p125
aS'3c8c3f91-9673-4f34-a259-0394c2fc326d'
p126
aS'94f6afcb-be7b-4522-8926-77a7a61c4477'
p127
aS'ad8c8ab6-8417-4e87-a69b-55feafe29844'
p128
aS'ef6a882b-a2fb-490b-85e0-31dd62015a7a'
p129
aS'f9fdfe24-539f-4915-a4a3-69b60f381fb1'
p130
aS'68349859-ced9-4e58-b043-d99a94743637'
p131
aS'96ad14ac-a489-468e-86ad-e2f5eca2d156'
p132
aS'96f9771c-0c0f-4ce9-8170-235c61b22e11'
p133
aS'59d856df-ea3b-43cf-ae72-c2d553a540d1'
p134
aS'72404d2b-58e0-4267-968f-0d0f68f09a60'
p135
aS'8cc0167d-e170-4177-a8b5-1745dae5a5db'
p136
aS'47bd6805-6342-4e71-a8af-58595e742bdc'
p137
aS'236f9b15-05e1-4ead-a051-d440fb15cc07'
p138
aS'83a1efe7-48fc-4fc9-bfc5-1d3f0926780e'
p139
aS'837ce666-6ac4-4493-b07d-dd17bb5c471e'
p140
aS'afb9f039-7d3f-4abc-9dfa-47f185a94937'
p141
aS'32d97298-3444-4051-b347-13b6d71127d2'
p142
aS'e6b11c5c-5dc8-4992-97a6-4e96d6a9210a'
p143
aS'c803902f-c7e3-4441-a50a-cd2d22002a85'
p144
aS'91c01a27-72f6-4517-a7f8-cf40c86efb97'
p145
aS'3b3e5d89-73bb-455d-87fc-7e48794de2df'
p146
aS'11fb573e-4bd6-404e-9e65-853663630a7a'
p147
aS'8179c177-2358-4013-8860-0ee32fec7a89'
p148
aS'8e5dfb90-7b49-4c5f-a759-e40565e9ecc9'
p149
aS'8b1c4c7d-64f6-44ed-b9b2-3c09efb58b8d'
p150
aS'edb42193-af73-4cec-a67a-3a106979aba1'
p151
aS'f58024cd-50bb-4a7c-a71b-e3c30e39d0a4'
p152
aS'09384e92-0963-43e8-8e28-838060b3f4c3'
p153
aS'97dc8624-74d8-4432-a491-a8e49be0749c'
p154
aS'f93da8b6-f76c-415c-9507-cdf3ed64401c'
p155
aS'711dbb7b-6c9c-4825-824e-d5e7b79626a3'
p156
aS'eb1d3a4f-f66a-4856-aff9-cba536f37a9c'
p157
aS'894e8583-fe0b-4e4c-971d-1ede11de7aac'
p158
aS'337e62b7-0ce0-4946-852b-a69ad04e315c'
p159
aS'5c41335c-0fb1-47df-a0cf-63995d36fa9b'
p160
aS'8035c9e4-cfd6-4aff-9810-0cc5387e2ce0'
p161
aS'c454f697-b686-4c68-b06d-10b29f56b839'
p162
aS'ef1a454b-75d2-49cc-98ff-621ca3ce5333'
p163
aS'e8c996a8-fb90-478b-b7d9-6013aae480c7'
p164
aS'1a1839da-8582-4999-bf05-b1a69f08b237'
p165
aS'd33cb09d-a434-48a1-ae13-c6ea6ab46c74'
p166
aS'a23fe83e-dbbf-45dd-9f30-65dfc52eb598'
p167
aS'5bc930ce-ccf0-416d-a92d-8f9fcd955306'
p168
aS'b3d57908-b1e1-4f17-a07c-da0240f87bf8'
p169
aS'64fd14f2-e65f-4086-9c42-088601b661ea'
p170
aS'441369f5-c137-4fd0-804a-8efa01e32e23'
p171
aS'7d66c779-995f-4b2c-8cdf-f90f48c79c37'
p172
aS'2d67f6ee-ddfa-49bc-9ab4-195876a38842'
p173
aS'6df40a68-266e-4386-b849-6bbf2c64c0c8'
p174
aS'a8bff0c1-21f7-444c-955a-ec345d9abe01'
p175
aS'291566df-1e24-49af-b0dc-35d608d09c18'
p176
aS'380088b1-3c1a-4568-b0af-59788c505083'
p177
aS'4aff72fa-e641-47bc-a6a5-bbea8a906d57'
p178
aS'21220a3e-237b-4dad-a495-022785ab33d9'
p179
aS'b8fba286-c07d-4052-a577-7a0c8997fbdd'
p180
aS'6997b904-2162-46be-a762-a4c95b3f6c47'
p181
aS'8753ec9c-eb96-43d8-bd11-3f70c5b04891'
p182
aS'11d42ae1-428c-4739-8743-b42ae7bf1bbf'
p183
aS'43863997-a5a5-4621-a07b-b2a24ae1bcfa'
p184
aS'31f1beff-d497-4d4d-b9d4-81be62de5342'
p185
aS'c3e38040-e7b3-474b-8153-06242543b931'
p186
aS'4ea2a14c-a0ba-4f41-9aec-70c37ebf92bf'
p187
aS'c595b6e9-4c0e-440f-825c-520fa403992c'
p188
aS'31dd25b7-564b-4b8c-940e-e08e8f07532c'
p189
aS'1f9f0ee1-8256-488e-9f50-a536628bcb10'
p190
aS'f2a45d66-45a8-45d1-b127-7bc2d543c9a3'
p191
aS'421ba57a-81e9-404e-b501-5e5cb428d2c8'
p192
aS'6fb11da4-e153-46e0-a685-856bfd2061bb'
p193
aS'e52ed499-5cc5-4253-b311-106b7443c4c0'
p194
aS'2a01d4f1-e331-4004-9678-84baf547fb12'
p195
aS'6d315551-93e6-4b5b-a457-16fbd1546821'
p196
aS'77a0a282-001a-4af8-94cc-662c97854c15'
p197
aS'5b3d83e0-b811-4c66-9c8b-a903db839a7a'
p198
aS'ed324a3a-e27b-4845-905a-5081642ff181'
p199
aS'4e19947e-e26f-4505-949a-779ec68f4eea'
p200
aS'163354a0-1bc2-4a00-8f44-e4a58d8fc9b6'
p201
aS'e973bec5-43b4-400c-933e-ea5101c3e7b2'
p202
aS'6b6d0e51-79ef-4cd2-81ff-92d19d2167d2'
p203
aS'0fcf81e0-7c0e-485b-9e40-d14c9f540b13'
p204
aS'4ecb5705-a89d-421b-9060-02717ff2cb0d'
p205
aS'd7cf9cdd-2339-4800-bdee-414855b8700a'
p206
aS'74a8c804-80c9-4ac8-b66c-7c4c64360641'
p207
aS'2536e985-5e3c-42b7-8de6-f1e7078255c4'
p208
aS'2648e3bf-64b3-46a4-8ca4-8a54974b3c73'
p209
aS'52652832-0a55-4a30-bf2f-617011aac907'
p210
aS'06624e7f-91a0-445d-9098-ff05c4e6550a'
p211
aS'2bb4cd35-8767-4078-9520-df7bf11d2fad'
p212
aS'0a5b858e-6cef-44f9-81bb-48dc0eabb721'
p213
aS'e46fe593-487c-4d87-b2bb-c1403420b904'
p214
aS'5d78a4e6-5d44-4969-afc6-70998a67f5c6'
p215
aS'b20e82c8-3408-4348-8d2e-f5e8df8be583'
p216
aS'24144ff9-24c9-4f26-bc71-6e6f1f6b7d71'
p217
aS'705e8bc7-c216-4a47-a010-4544dcc77ab1'
p218
aS'78fce6fe-3a3a-4022-addd-0022109a315c'
p219
aS'75ce99ce-e1f8-4834-8a13-1be56af0a48a'
p220
aS'dad29eee-da1f-4a18-b8a9-385fbc8eb3ba'
p221
aS'ed6ab4f3-a3bf-453a-a331-fe467e61755c'
p222
aS'a2b79cf9-c0f3-4a87-94f1-48102c5c4d68'
p223
aS'385918fb-9455-4822-9cb7-ebc30717888a'
p224
aS'd35cedd8-dcef-40e8-be9e-f42072643008'
p225
aS'278bae89-fae7-470b-989b-4a359b46e75e'
p226
aS'78a6e8d2-f197-4bbe-81d5-4263cdb9db02'
p227
aS'dde0fb00-707a-46ad-8107-21f83624d23c'
p228
aS'c4fce4fa-0768-4119-bdd8-8ddb4b97dc4d'
p229
aS'c83f845c-51ca-4baf-a92c-f3bfda9b4328'
p230
aS'ff3e06e1-d8ce-40e4-a588-88fd86ab7594'
p231
aS'1705e351-ee39-4b4e-af8d-bf20525e28bc'
p232
aS'521b8359-6f72-4aad-9017-c5b25f75410b'
p233
aS'd6ff6639-dd49-4fbd-a368-8b563eb148a8'
p234
aS'9a7863a4-0cfc-4633-b670-4cd765302fb3'
p235
aS'7ae1d804-49fa-4e8c-904b-00066cd3c2d0'
p236
aS'70338ba2-cd1a-4933-bf56-afe871241108'
p237
aS'e984577d-9f8c-433a-8fbb-455098222bff'
p238
aS'36454c3c-8784-4b9d-80b0-09a763e96894'
p239
aS'78c1e018-66ee-43c7-9a11-e837dee3c7a8'
p240
aS'5244d4d2-ffb9-4f36-9bf3-8ca17894f2da'
p241
aS'9381c74f-17a2-4260-846d-7d83476e675a'
p242
aS'2caa88f1-9165-4b01-892b-a9be82832f38'
p243
aS'c7986813-7479-466c-974d-cf74e758e684'
p244
aS'5cb28faf-7529-40ac-9bd7-d27f653d085c'
p245
aS'1dc153c9-bb7d-4b4b-9b00-8f745f155dff'
p246
aS'bf3a1469-35a0-456e-b7c3-8f14068586c7'
p247
aS'921e68c4-deee-4f05-81ac-9bf7bcb06458'
p248
aS'37cae6a8-a939-4a64-9d17-01606c49187a'
p249
aS'57b4e02d-5a9a-44c8-a19e-31ea26d056e4'
p250
aS'7ed8c657-2096-4a96-beea-e4077f7a6520'
p251
aS'041775c0-9595-4595-9a18-764407c65400'
p252
aS'b08d7635-89d6-45f0-a84a-812acc78fef1'
p253
aS'd9747b81-6193-4512-9fb1-7dc24cbcd67d'
p254
aS'a94d35e7-7f0c-4142-b4c6-5b7cae0a10f6'
p255
aS'1cacc5be-23c7-4a09-8c00-5a61e1d6ddb8'
p256
aS'd7b5b903-a579-4c23-86cc-ddc45530643a'
p257
aS'f9744cfd-a3e3-4dfe-a296-0931120af983'
p258
aS'6933cede-e5a9-408c-a240-4cf6afdc64be'
p259
aS'0c385016-75aa-4f1b-af40-de5585b51e23'
p260
aS'5b84c8d1-a44a-4ef2-b8e1-5e7ac15f6c09'
p261
aS'784a87af-134c-4836-8cd2-a36c88fbcc91'
p262
aS'b63282e1-443d-49b6-8d32-d53711145286'
p263
asI1487483822
(lp264
S'593a282b-c99b-46df-a270-2e495f823916'
p265
aS'7f2dfef9-6636-4862-9609-5c648aea8500'
p266
aS'65853348-9b72-44fb-a8c4-2385f8cf9ce0'
p267
aS'630742c9-8b8d-4c25-8ec9-1ed553afc337'
p268
aS'ec04edf7-ce4f-4767-9329-f9262d82e6fd'
p269
aS'9808af96-0b4e-47f2-b53b-bdbe9077c245'
p270
aS'464c5a7f-8c91-41ee-9627-af34336db5c2'
p271
aS'1953e260-bbf8-4e6c-9336-2b33e0379e96'
p272
aS'9838a147-7c5f-4d3e-a882-758efec1b669'
p273
aS'c8e99fd7-65f9-4ee8-b50e-a71a7ad6e5be'
p274
aS'5bf4a002-4754-4d2d-a6a9-d3c48a55efe4'
p275
aS'3f11b938-6c62-4b7a-80f9-1e4e3930a763'
p276
aS'dfab51e5-467e-45da-b4c0-ccce8d7cbec1'
p277
aS'802e9423-c589-4b31-ba5d-b3edd3e672a3'
p278
aS'016866c1-f902-49d1-87cc-0766f1885284'
p279
aS'0675553e-8372-4349-afe7-5aab1aadf9e7'
p280
aS'483dbf8c-be7b-48c6-a704-8be8935bd113'
p281
aS'f8223010-3d49-43ac-bcc3-a2e8014c4b0c'
p282
aS'39a57067-21bb-4ef5-95d4-2d3f0c627e58'
p283
aS'9f41f338-6a67-455c-b1e3-3c4dd9d1d206'
p284
aS'a8799dde-c61b-4244-9079-16a8a7c47b00'
p285
aS'ff8c7e8a-0450-4aa3-a7be-3045798c599b'
p286
aS'f7d94314-5a84-44c3-821a-3e3eb2274e5f'
p287
aS'd8176370-bcf0-4824-abd4-e7240531e5ba'
p288
aS'baa784bf-cdf3-4aa3-9603-a2cbe79a966f'
p289
aS'89382b21-5916-478a-bac6-ba4be9e96d8d'
p290
aS'b74d09f6-b83c-4f0b-9d19-e45f9b9aadbf'
p291
aS'fdfc19ab-a244-419d-b33c-1ab0e2feaf0d'
p292
aS'12c52046-6d8b-4f79-ba58-3dcf96e4aa7c'
p293
aS'5bde8447-3a92-4008-86bf-dbb0c442e3ae'
p294
aS'92f342d2-32bd-4fdd-817f-53f400390521'
p295
aS'2ad79054-070e-4bee-b2ba-065c7975e9bb'
p296
aS'4d36a9e4-0e1e-4265-8413-548c05febb01'
p297
aS'a47aeda9-9425-44ab-9979-eb8f301d8462'
p298
aS'ad55cbc6-ed10-404a-89a3-b7222b7136e0'
p299
aS'78b3445d-1023-47c9-8790-9a3e71be147e'
p300
aS'4eaf3298-52b3-4353-a740-1dd008f56d6f'
p301
aS'485fcf28-12cd-41c2-8f35-423582d5b37a'
p302
aS'0b1e279a-752d-4b74-b757-40371dec68d9'
p303
aS'165898ef-2ebf-48cf-af9e-5ccb4ce9bd6a'
p304
aS'86281159-de7d-420f-9053-74bc07dca6b2'
p305
aS'a0dbdcbc-cec6-44e9-9a2b-93a0f7d26f49'
p306
aS'e3c1f915-1f12-40f4-b845-4fa677ae40e1'
p307
aS'86eb7371-7639-4e5f-a39d-eb5faf2aa7ba'
p308
aS'409534fe-8287-43df-a147-82092a71e180'
p309
aS'5f6e75b6-d01b-4bd2-ac77-12dfb289cde3'
p310
aS'dd5c1589-83fd-46db-829d-ac50aefc3076'
p311
aS'acf72b08-d230-49c5-9803-a104b1059c9a'
p312
aS'f65cd99c-f45c-4f4c-af39-6935ee5ced8f'
p313
aS'52f1014d-cb25-4c44-94c5-20cbed65762e'
p314
aS'6c719e2f-c7b8-4696-a36a-a2493372e3a0'
p315
aS'd9d6ad38-f0f7-419c-8bd9-c88cad46873d'
p316
aS'13d2c535-0e2a-476d-8078-b1a19bd8e781'
p317
aS'35effda0-6e80-4bc0-bd47-18039bf83068'
p318
aS'5a00a7c6-6891-4a65-aff4-77bf85b2ca8a'
p319
aS'1db0b9b2-6e38-4b61-a1cd-8c8533fdb8b9'
p320
aS'433b37ea-f782-470f-9abf-675c80d0be21'
p321
aS'b2f2a8c6-f5c1-408e-92b2-96d8bc50d180'
p322
aS'e5787a05-333e-41e0-9dcb-357c0cc4aca2'
p323
aS'd44674a1-cd15-45cc-a86f-9367853efed2'
p324
aS'1eb9b907-2239-4867-bcff-6b640e27c6ce'
p325
aS'0928901f-fd58-4f32-affd-ccf336eadbc2'
p326
aS'fcbc992e-c74f-4f0c-af6b-e29af84c1b6a'
p327
aS'7181ce37-e5b8-42ae-88e0-d7c5d60413b4'
p328
aS'cb92399e-f56d-402e-b995-cb763ab52e23'
p329
aS'ab6013a3-51d9-4351-864c-f505e9f4c298'
p330
aS'c286cae4-4943-4f74-b682-19b898c183a3'
p331
aS'32a494d8-81be-4ba7-9743-bb05cbb97ae3'
p332
aS'05086367-64b8-4ca4-bcb7-3c2011864399'
p333
aS'673c7e47-3de4-4652-8c1d-2b6ec80895e7'
p334
aS'0643ecec-6124-47f1-adf8-219f2b0cf4c4'
p335
aS'7edf74d4-b891-496e-89eb-fdc7402587d8'
p336
aS'd7d7abae-f42b-4802-9c03-f4acf8e74873'
p337
aS'4684285a-12be-407e-a176-ebb15095ac25'
p338
aS'c2dc9afc-7f23-4d7b-9a6f-0470e6c96d31'
p339
aS'1593995d-21c4-4d1e-a399-e9384d0b213d'
p340
aS'da6459fa-820c-442a-9a70-ec92d47e6a84'
p341
aS'1d245a6e-4799-4753-9acc-ff74476dfe8a'
p342
aS'ddd13a56-1e16-44ea-8bb8-8f01da528bb5'
p343
aS'26d33623-2f21-49f2-8382-3af50de1756c'
p344
aS'97f52144-b7ec-49f3-a692-4d1caf3638f2'
p345
aS'1df66dec-9ead-4512-bc16-312c334765dc'
p346
aS'0fd2d460-f105-4839-8437-d24a75a27248'
p347
aS'c1dfaeee-efc9-4cae-8966-4eb4b9ea0874'
p348
aS'0553081a-f8e0-4f58-9546-0213f150bcc6'
p349
aS'30e55de4-cbb5-4d8a-92e4-721211d92acd'
p350
aS'1f62abd1-ba0e-4e49-bf1f-58052c634942'
p351
aS'7c2131ae-a488-420d-9672-553aa30022cf'
p352
aS'c9131d30-aeb7-4fc3-aec5-1f70b47472d5'
p353
aS'1be887f9-d2ad-4e4e-8ad1-6464e598dfd4'
p354
aS'4035877b-7e3f-47da-af3b-4bd35a9eeebf'
p355
aS'43837f35-c159-4de8-ba97-cf935dc85f49'
p356
aS'79d04c2a-cc0b-4bf3-b8d0-a296aac2f2fc'
p357
aS'f5d530f6-4e7e-4201-82e3-99e8f947e4f7'
p358
aS'c9af33be-cafb-4014-b770-b08bb1a30a83'
p359
aS'bd745fa4-25cf-48a5-a82b-bb6d20e66557'
p360
aS'9ef04e29-e89c-4292-ad30-96e7f1db058c'
p361
aS'bd2039f5-5cd8-48a1-9d38-6b3b9ddcb577'
p362
aS'c03b5fd8-fac0-41f1-8575-cd86409afd46'
p363
aS'b31c1288-6ff3-4d0c-acc5-a01ebedbd062'
p364
aS'45669215-ec6e-4a77-8301-8225a2213d90'
p365
aS'a763485a-08e0-4379-9144-223203da25a9'
p366
aS'2f58a638-0c6d-4f1a-ba5c-e153c7e83bd8'
p367
aS'0b9d169e-8a55-43d7-8c02-271c77093be1'
p368
aS'8b68e966-9a49-4df4-aac2-3d9a2f77aa9c'
p369
aS'0d927ce6-4417-494a-a9cc-dec8cdb798df'
p370
aS'8af7d68d-ae83-4318-baef-366f9dc4f8f8'
p371
aS'd6262bd0-5892-4d54-9d1e-44fffc5c9ad8'
p372
aS'72f53051-ee41-48d4-9a17-60a5b5e86640'
p373
aS'd462754e-41c6-44a4-8c36-aad6a16c0ae3'
p374
aS'134a808b-59c7-45d6-9da9-bd1a95897263'
p375
aS'75bfd551-c13c-4e29-a25a-8b24c8cbe921'
p376
aS'd002912f-d358-412b-bc3b-a617b445f244'
p377
aS'4a0cf4fd-00d5-481b-a277-d6aefdb1754e'
p378
aS'3e421733-b553-4cdd-8946-475d8e02770b'
p379
aS'78f3c4a6-8a08-41ce-a31b-7fede22eeb29'
p380
aS'5aa4e16a-bfcf-4ddf-9e69-6e1569e7812d'
p381
aS'2308f0fd-9fec-4187-9225-cb4fd7735ff2'
p382
aS'13811b20-5cfe-40e9-9325-2145be3569fc'
p383
aS'e667affa-dabd-484b-a12b-db43c595ae8d'
p384
aS'747a3352-7939-471d-871e-510e902959ad'
p385
aS'276f05b2-a702-4c1c-8fe0-e937415b834c'
p386
aS'142af9af-d340-42be-ac71-f580d9de13b4'
p387
aS'9ac1f907-419a-4446-9feb-2505faaa21ec'
p388
aS'd17cc190-7e52-4ddb-8ee7-3072c7d5ae26'
p389
aS'4aa58897-7d55-4e5b-a68b-864105b74c12'
p390
aS'53b51ed1-5449-4838-aad4-788122ad6776'
p391
aS'50927966-945a-4f33-918d-1f17626ee02b'
p392
aS'6f00ec35-a148-46ed-a1dd-539b3413b0bc'
p393
aS'9fc1134f-a089-4055-8d70-df05cfa1632c'
p394
aS'aa46a9ad-58a6-4889-b553-3e16476ff2f1'
p395
aS'643743ab-6b7e-48f7-9f31-2451ccc2ba5e'
p396
aS'a43cf5ed-8a70-4d95-81b4-18aed229b979'
p397
aS'020be35b-65bc-43f0-a906-4aa4f471e3ce'
p398
aS'aaa5c806-fab5-4a25-a7a4-bf44de2cca29'
p399
aS'5da97d29-242d-49a3-8a5d-b40eba6a2fe1'
p400
aS'b239443e-3e9d-4d35-8ed1-ba0295b34c6b'
p401
aS'298b34e7-be5c-4fc9-9b3f-aadcde7d3011'
p402
aS'0f381816-5bcf-4645-b1eb-3d1db6abe10f'
p403
aS'ea1c81b9-30d1-4a4f-8d1d-9a8751f90561'
p404
aS'20f62106-f98c-44d9-9601-b3c209f27698'
p405
aS'b5f5356d-bebb-47c6-a102-77351a7aaa64'
p406
aS'1a2a1a91-017b-4204-a463-7822f421e3f3'
p407
aS'ea33e818-6acc-49fa-88b2-7bc4efb4ca9a'
p408
aS'766583b3-9f97-4db2-9bb2-bc194044f314'
p409
aS'cf0a2fea-4a65-45dc-be84-9ec2d690a849'
p410
aS'5b82d4d8-6e8e-4534-9421-a1fa40001323'
p411
aS'67cb6abe-ab31-4783-baf3-2e3ba35c3086'
p412
aS'5cfb2de1-a3e6-49f4-87e1-57dc57bf9df7'
p413
aS'da11ab14-8254-4741-8bbd-1844115f8840'
p414
aS'b7c9500c-1aa1-4e82-b022-ce2242bb8de5'
p415
aS'fa783e96-5966-466a-a24d-fa683b1c85f7'
p416
aS'83a1e77f-f9db-47bd-948d-73f5db53c71f'
p417
aS'ec9a2aac-5c57-4b17-ad28-c9f6e91ec139'
p418
aS'e332f91e-eff6-401f-89f6-578ff0380f1d'
p419
aS'ffd77897-b794-47fc-91b3-3673630fc8f5'
p420
aS'b03334e0-af89-4330-ae36-3ca928c91dce'
p421
aS'7b207aae-5e5e-4408-9a5e-b9d40673f37d'
p422
aS'762b95c7-e4c8-48f8-ad48-06063e3a083b'
p423
aS'eccf7851-cb53-421b-a670-3580633dc652'
p424
aS'7273e351-fb8d-4fd3-95d2-520d33d9dd36'
p425
aS'e239ee83-2b52-49e3-831e-970f7c4cb849'
p426
aS'f8567195-51e2-4981-a3ff-ef257c3bb753'
p427
aS'821c0e47-25aa-4b5f-8e5d-4d4d8108f69f'
p428
aS'1d86bf3d-9a88-4cd8-9d10-f04a9c70d543'
p429
aS'5438e074-2e4a-4a69-80e1-ceee6a9d818d'
p430
aS'b4e725d5-bdc1-42ad-8b83-de754a6d7922'
p431
aS'4ebe05db-0a39-46cd-bfd9-c9a4fb43a4df'
p432
aS'c8d6509f-9edc-4ade-8e75-c6d03f6ca0fd'
p433
aS'0aec8eef-8eac-4eb6-9d41-e904e829075b'
p434
aS'f0500b18-ae47-4f86-bb50-dbfdb58376a7'
p435
aS'd17f8acf-5990-4323-8e76-5d5eda9ed67f'
p436
aS'5427fe42-b2e9-4853-ba66-4e4007f72151'
p437
aS'424586b0-90bf-46fc-b487-5eab3b063ce3'
p438
aS'4e07909c-1e30-455b-986e-88657d362bf7'
p439
aS'aa9cd7a5-5054-4711-b2ab-d9b994f8533f'
p440
aS'60833034-0ae0-4e16-bc47-f11931a58939'
p441
aS'8734d3cc-cf45-4cbd-8991-8f6b7dfa6e84'
p442
aS'd46b8a6b-55c0-4c0c-b0ff-f0343f98727a'
p443
aS'6a15f1ab-e489-4abc-a539-810b00131b3e'
p444
aS'fa72f749-40b8-442b-8810-84a972059bcc'
p445
aS'f2ced513-f85f-46e4-8c1f-af5ec9cbd0b4'
p446
aS'a5455a29-049a-433d-a165-01d06323b611'
p447
aS'c444363c-ea94-4538-814f-2a3ab6bdafda'
p448
aS'3163dd82-ddc2-4f3c-9c0e-f5187b93e110'
p449
aS'77c9b28f-39be-4ef1-a431-f6eeee4d7365'
p450
aS'43499b6f-3cc0-4a8f-abaf-ded986b5400b'
p451
aS'246fc75a-4a22-4630-a6c7-8bc920e71d1a'
p452
aS'f0bd1cd2-847e-43cc-895b-5d2c3de721db'
p453
aS'58a08c6b-2a3e-4fd9-89ba-837dc2d231cd'
p454
aS'fd14f9c6-acb2-4bca-9362-f5e5734796d5'
p455
aS'99fc9736-1d0f-4f3e-9378-16a74c6e00ff'
p456
aS'0d4fa347-0eea-4a56-a259-958e3a31ff41'
p457
aS'ebbc06e8-ce6f-4763-a441-a5da8cd0546f'
p458
aS'd543f2aa-6421-4c45-a8f9-19adb5a7c155'
p459
aS'f1cdef82-a7cc-4a03-bb9a-3ca7a53742d8'
p460
aS'0754f833-5893-4994-9893-f41e31a5e193'
p461
aS'9a1d7989-98b2-4c37-9d02-ddcf40ad6b30'
p462
aS'8213e961-1cb2-48f0-a009-dd4ac57e391a'
p463
aS'c9f15c80-fe81-43c2-acd7-cae732522b9d'
p464
aS'e28dea29-cb6d-47d2-8d9b-b4723da761c7'
p465
aS'afd8e6e7-4bb7-4a06-85f9-6abd4536c963'
p466
aS'32cd39cd-f117-46ad-b784-ec5be4a9a0a9'
p467
aS'192b2d9b-b6b6-4917-a5aa-fce35cde2d74'
p468
aS'cf362c03-c1a6-4308-833c-8c63a7929dfb'
p469
aS'0e934663-2e0c-4cfe-880e-c42ab673c6a4'
p470
aS'0cdf05a2-3d30-479b-a0f2-6d22acb019f2'
p471
aS'fd8d4e13-c851-4b67-bd4f-c833bc51f439'
p472
aS'b98ff145-2b62-4807-bd81-c04002419683'
p473
aS'3ccd2a6a-ab01-4549-8a19-ef6e730a4f98'
p474
aS'e1ae24dd-b52d-4941-8711-74a2cc5946f2'
p475
aS'3d0a6094-b946-42a0-95e5-0c81fc1202c6'
p476
aS'ee84bfa0-a513-4ab0-bf89-46435becbe30'
p477
aS'd0bba3c3-e331-46e2-b327-9e6ac219a74a'
p478
aS'58395bd5-c8c0-413f-a960-7bbdafd117f8'
p479
aS'adfeaa0f-dd3c-41d2-9c0d-4ce24a9388cc'
p480
aS'09c79b28-1bc6-4bc0-aaac-ff6807878d1b'
p481
aS'6158ce52-2e3f-4816-b1fc-2c35142da666'
p482
aS'1ac08261-a46b-4550-80c8-b8e00faff54f'
p483
aS'1b4209bb-bf68-4844-b314-2b0b1e1e9422'
p484
aS'c4d3250c-c6f4-47eb-b6e1-58dd1d67cedf'
p485
aS'e06158f6-303f-4630-8711-715140692f43'
p486
aS'e7fbd3c8-3e2c-459b-9e16-9bc00db8f92a'
p487
aS'95e30f49-3b6f-4f4a-8a79-144855565980'
p488
aS'f1fc7a06-270b-4b51-b7e2-d24db79c04fa'
p489
aS'66e590d3-e11f-4565-bbeb-5ee6e5e9a67a'
p490
aS'f239bf55-ecf8-4aa4-84fe-ecba96aa11ed'
p491
aS'cf0a9879-69da-4fb0-b581-3ba7ec5c6db6'
p492
aS'a0ad6a9b-7e5f-4c0c-a2bc-32a42d92d89e'
p493
aS'ff3b310d-6e3f-4439-9c8f-e556d324049b'
p494
aS'436cbe5d-3424-4eb3-8a8d-4b49a00a4000'
p495
aS'23d1a142-9e16-4aea-bddc-f399bb562974'
p496
aS'b13e3a15-d6ab-4951-b688-1665d6d22143'
p497
aS'f6032000-6dae-474e-b35d-8da7c7180da0'
p498
aS'f4f17d68-4d67-4ca5-bc9d-d1ab6bd75821'
p499
aS'a0989fbd-9ed3-495e-b9a3-474a52793b9a'
p500
aS'3ce059f9-527e-4ccc-818a-228354f61145'
p501
aS'd687175f-0a30-4a98-9fe2-d0806bbf648e'
p502
as.