(dp0
I1486393344
(lp1
S'fccf5030-2788-49a7-b93a-4f5208aa9979'
p2
asI1486319619
(lp3
S'269e38e8-880c-4c1d-ad4a-8266f5506528'
p4
asI1486346249
(lp5
S'db211e34-e3a8-4b27-a8f8-10a55b11d615'
p6
asI1486356491
(lp7
S'4d06aa7b-ace6-4de9-99b5-f5c26833efc1'
p8
asI1486356498
(lp9
S'9a1c6977-7e00-419f-a060-bb3210c8ebfe'
p10
asI1486364692
(lp11
S'23fd38ec-b7cc-42a1-a257-a342c027fe4b'
p12
asI1486354453
(lp13
S'277458b6-62b8-43c3-81df-50848e2cdd9c'
p14
asI1486360599
(lp15
S'4fe4df10-1661-473f-a981-7e0144833bcf'
p16
asI1486370393
(lp17
S'4e189219-06e9-43ec-b763-df1faa3b3938'
p18
asI1486325799
(lp19
S'c1a455f9-f648-4734-87f8-31316dc225c3'
p20
asI1486344232
(lp21
S'5ebf3036-944b-4f21-936e-670f11732371'
p22
asI1486358570
(lp23
S'3ba620e3-35c8-43b2-beb3-4595d4157781'
p24
asI1486392327
(lp25
S'536a0984-cdc2-4729-96a6-828f3c23d6eb'
p26
asI1486356524
(lp27
S'75ad68a2-8a4c-44e7-b8ce-4ef42d4c0ede'
p28
asI1486372915
(lp29
S'5104a031-943a-40b7-8f88-a9f16d9100c4'
p30
asI1486317620
(lp31
S'7cb159e0-7d81-4e0d-b773-f5bf4ce72e75'
p32
asI1486358581
(lp33
S'54379f9e-35bc-42ad-b471-5d4a4d41337a'
p34
asI1486368822
(lp35
S'697ff7d5-ffbb-438d-bc3a-f2f67c2857f6'
p36
asI1486317623
(lp37
S'9844a233-bec1-4365-8b50-1028b4bec0c4'
p38
asI1486393404
(lp39
S'b6434308-dd45-4fd8-909f-c4036a1720c1'
p40
asI1486368838
(lp41
S'1dda0221-4752-4af6-806b-b4014b8ce82c'
p42
asI1486377047
(lp43
S'019a2044-3198-4c0a-bbda-f47e2456beed'
p44
asI1486325848
(lp45
S'7c731bfa-eaf0-44ba-9351-3fc90d06aa4c'
p46
asI1486340196
(lp47
S'3d3c8835-233c-417b-8175-922f8f92dcf3'
p48
asI1486352488
(lp49
S'fccdac92-2e1d-4b62-8479-96ecbd4bead0'
p50
asI1486372972
(lp51
S'ddbfb03d-710c-4cd8-93c1-7a97251e1a7f'
p52
asI1486372973
(lp53
S'6b09e74b-a5b2-40f2-92ed-edb6e0e1f823'
p54
asI1486340206
(lp55
S'3f30debf-d4ac-4726-b6cb-adc179628ffc'
p56
asI1486318567
(lp57
S'ee9cc9ee-7319-41d2-987d-64edebeed89f'
p58
asI1486383229
(lp59
S'8678d90b-c2a6-402e-a1f0-c010183f72fd'
p60
asI1486329982
(lp61
S'98ac1094-e94c-45a0-ac1d-1fac1d782511'
p62
asI1486323392
(lp63
S'40c59077-7d16-418b-8743-05fc0b33150a'
p64
asI1486377092
(lp65
S'fe72dbd5-4103-4fc3-9c9a-eea9ed8d2a8d'
p66
asI1486377093
(lp67
S'8ec3ab7e-dbfe-40a4-ae06-507cee82a2f0'
p68
asI1486325783
(lp69
S'3f62d6fa-20b0-4387-93f2-5c6245c2bedb'
p70
asI1486346380
(lp71
S'7493c788-d134-4f89-96c0-d7bdbab10303'
p72
asI1486313615
(lp73
S'823c2da0-51a6-4f36-a44a-ec0f8f82aa6f'
p74
asI1486350482
(lp75
S'1c3256ef-d0de-40d2-9499-76e01dbe5c57'
p76
asI1486323860
(lp77
S'0aa6246e-b5c0-4066-a2ff-b7c6f0ccba09'
p78
asI1486358894
(lp79
S'518a7de2-29b3-4566-bc85-8be75965349d'
p80
asI1486360727
(lp81
S'ae53ce78-7fdd-46ac-8174-4980f0be0f3b'
p82
asI1486338207
(lp83
S'5fa7c9a7-cce5-4719-a1c5-688580f672bc'
p84
asI1486348456
(lp85
S'fc0a9ed7-2df8-4b47-8d28-68997dd9a02d'
p86
asI1486327980
(lp87
S'5740f64f-23c2-4201-883f-2093ccc93ea0'
p88
asI1486368942
(lp89
S'33a2c0c6-e104-467d-9cdc-c1d7bbabe025'
p90
asI1486379190
(lp91
S'c5a26e40-766b-466d-91fb-0251f10f088d'
p92
asI1486317755
(lp93
S'3ddbbf51-3edf-4a4e-9198-5324112d3ab6'
p94
asI1486313662
(lp95
S'68d25263-dca8-45a4-8337-c7e83a3788d6'
p96
asI1486358221
(lp97
S'fb6d633a-b0fa-4fce-b046-e3fd35ec8e9f'
p98
asI1486338261
(lp99
S'ff7b1651-0e02-4b7c-a8f9-0e20e241e1cb'
p100
asI1486342360
(lp101
S'501ca2bf-78c5-43fe-b679-cc40ce11176c'
p102
asI1486323930
(lp103
S'3196ec26-a5c6-4679-9b13-3542087fc233'
p104
asI1486375140
(lp105
S'6fc5218c-4864-450e-b90b-6c360ae12767'
p106
asI1486317797
(lp107
S'24d55561-7ffc-4e6c-aadb-7b24fc990de0'
p108
asI1486377196
(lp109
S'23cc6827-23af-48a3-beb2-df78c7271493'
p110
asI1486364921
(lp111
S'cd655c90-dcb3-41f7-a4b3-c72326cb2319'
p112
asI1486366971
(lp113
S'7a03d46c-32e2-4464-bcfd-b32e63015afc'
p114
asI1486357546
(lp115
S'9591840f-4938-4266-bfb1-e4c12894d695'
p116
asI1486344448
(lp117
S'e563a2c6-adee-4121-a318-c0ac4d6b7f42'
p118
asI1486350600
(lp119
S'da68a2af-6629-44ae-804b-585a7d590329'
p120
asI1486319885
(lp121
S'85e7e4c6-158e-48eb-8e78-5719bb31e588'
p122
asI1486342417
(lp123
S'cbaf95f4-db38-4bc3-bb1a-818e9b153824'
p124
asI1486340370
(lp125
S'9128ecad-ac00-48aa-b271-123f24426d44'
p126
asI1486310787
(lp127
S'a3ca6719-4cfb-482d-85aa-feac889437c4'
p128
asI1486354708
(lp129
S'91f01299-0ab3-4a4c-8911-ac44b86d262c'
p130
asI1486385433
(lp131
S'f8df4b8e-37fd-490f-afd0-254d22332113'
p132
asI1486381338
(lp133
S'c7da3777-418f-4429-b769-b93c3ea4aa59'
p134
asI1486364955
(lp135
S'78dd49a2-30c5-4610-9255-8855185cdaff'
p136
asI1486348575
(lp137
S'8ed8d69b-5ff7-4215-b071-ed7223a54d03'
p138
asI1486350625
(lp139
S'5913019d-5284-441f-9461-e56c4f71d208'
p140
asI1486323551
(lp141
S'e254ff01-c39c-495d-a1b8-c4f96b5c21de'
p142
asI1486334246
(lp143
S'8008ce1e-cd3a-4dae-be79-a8db2a9a8cab'
p144
asI1486354823
(lp145
S'f61a7374-1171-4197-a396-bd67ccfd056d'
p146
asI1486367453
(lp147
S'7e5c6a55-d79d-472c-a086-d371c1f67fc8'
p148
asI1486387506
(lp149
S'ead90833-c41b-4844-9471-a95f7230de76'
p150
asI1486384862
(lp151
S'7c8fb0dd-87c7-4bbd-ad0b-e10f52979b71'
p152
asI1486321974
(lp153
S'894c8ce7-2faa-4086-b53a-98613e4ac7f5'
p154
asI1486395704
(lp155
S'84b8aee3-023c-4040-a501-4615fd04cb84'
p156
asI1486371129
(lp157
S'13621407-5ad6-4005-8708-b3608d93421d'
p158
asI1486386911
(lp159
S'676d88bc-51eb-4b26-b596-76d470e52379'
p160
asI1486315836
(lp161
S'b792cddd-8716-404d-acc9-2861b6a266f2'
p162
asI1486354749
(lp163
S'9c58f442-03c0-4a87-b82f-be692e62fe22'
p164
asI1486367041
(lp165
S'3491815e-18aa-4035-893a-3046e3bccb27'
p166
asI1486359609
(lp167
S'558bf841-fd24-40fc-b000-71a0580babfd'
p168
asI1486362975
(lp169
S'a2832e58-38af-4858-9df5-df994e7bdcc2'
p170
asI1486362976
(lp171
S'e491e3ad-e932-4a0b-be37-cfbea859fa96'
p172
asI1486344545
(lp173
S'b2932063-cf9e-4f05-8676-5d1ecc577e6f'
p174
asI1486391650
(lp175
S'743b81d2-2f08-476f-b78d-738eb58b4e92'
p176
asI1486330216
(lp177
S'27e3aaf9-7155-4c55-a6f1-df22b918ca15'
p178
asI1486352748
(lp179
S'0a233403-e79e-42ba-961f-1e061fc51bc2'
p180
asI1486360942
(lp181
S'28442c9d-7f69-43b7-8e37-5f5bbd64e8fe'
p182
asI1486378387
(lp183
S'c404e2fb-8fae-4676-8b42-025278dcd513'
p184
asI1486328187
(lp185
S'f66b79aa-a9b6-4e6e-babd-5be0e364ecc6'
p186
asI1486326147
(lp187
S'1922bcda-e27a-402a-b262-3359e976b7a9'
p188
asI1486318657
(lp189
S'364c71a7-4354-4da7-9f9c-b834b6c11f03'
p190
asI1486342540
(lp191
S'20f730f6-17e9-477b-b3f5-7f62bf6c6ff2'
p192
asI1486330264
(lp193
S'4b879f89-db02-4847-9b3d-bab88b379654'
p194
asI1486383508
(lp195
S'7f3d950b-d200-462b-b980-6f28e5836219'
p196
asI1486313880
(lp197
S'a634a917-87e2-4826-b962-21bb8b580232'
p198
asI1486338461
(lp199
S'1f912935-ee89-4b2d-9946-ba7384a8a918'
p200
asI1486326215
(lp201
S'a55fe415-6088-4307-9cb7-8b4185d7b23e'
p202
asI1486377383
(lp203
S'd3ce184a-6b5c-4783-80f0-67da815f97c8'
p204
asI1486340520
(lp205
S'a5c4180c-9d4d-487f-abcb-90d6c98a51dd'
p206
asI1486367149
(lp207
S'0238873f-75f4-44bc-999f-187d05379928'
p208
asI1486375325
(lp209
S'a3c63472-db66-49af-98f6-c066e984d944'
p210
asI1486348721
(lp211
S'f11d7e9f-9e6a-4e62-8f34-551c5a102769'
p212
asI1486387636
(lp213
S'0f5ebb6b-ed7e-4d3f-84a3-bd339964157b'
p214
asI1486391741
(lp215
S'f3e6f5a8-8de2-47af-b93a-73a8f7ef1deb'
p216
asI1486319349
(lp217
S'99575caf-eece-45cf-b298-c9ad77dcda5d'
p218
asI1486379459
(lp219
S'dcb9cc0c-c56e-42a3-837a-fe998bd5a88e'
p220
asI1486350791
(lp221
S'7e42b074-fc7d-45be-bfb0-f0fe544cfebe'
p222
asI1486344649
(lp223
S'facb7f12-1c7c-4885-8632-c021b8db7ab1'
p224
aS'd43393ea-713c-43dd-9349-79e27e040777'
p225
asI1486350794
(lp226
S'9d22ec35-34f6-49a5-b9d3-512a5df75944'
p227
asI1486334711
(lp228
S'f66963c8-1a6c-487d-8c02-4a1d2d858c34'
p229
asI1486393808
(lp230
S'1bb53035-08a2-4207-aa48-4d71b8fbbebc'
p231
asI1486334417
(lp232
S'8ab4e8d6-eed0-43cd-995e-f0543211be63'
p233
asI1486361044
(lp234
S'f979e7d5-fbc1-451c-9c60-f66d8af3c96b'
p235
asI1486330327
(lp236
S'6f430866-d5a8-458d-bd88-d83fc51029b7'
p237
asI1486320089
(lp238
S'fb9b191a-e932-4ee3-8425-e9153b0d9e46'
p239
asI1486391770
(lp240
S'dd46385a-6f8e-4a7a-8a91-f6f1f25e2f69'
p241
asI1486381531
(lp242
S'baa4b166-47c6-49cf-b737-953f1a331425'
p243
asI1486356959
(lp244
S'eda357da-99d6-404e-be3c-67582ab4add0'
p245
asI1486344676
(lp246
S'81f1aba7-5088-40bc-a79a-cfe94bdd55ad'
p247
asI1486383596
(lp248
S'3d53e680-eadf-439c-b605-2ddb22ab6887'
p249
asI1486311921
(lp250
S'd053aeae-4a40-4dfb-bd19-228863ea5762'
p251
asI1486359028
(lp252
S'4343fe2c-5e2d-4052-b92b-adda260e2dd0'
p253
asI1486316026
(lp254
S'3e403b93-4048-490a-ae98-4f945d7d2813'
p255
asI1486381567
(lp256
S'28a7ffa9-0ff6-4a29-b568-f1e17e3ac6d0'
p257
asI1486371332
(lp258
S'93a9599b-450c-4d1a-ac57-1d7a66f9e792'
p259
asI1486356998
(lp260
S'2bd48cd4-a871-4a30-b426-8b7233fe1d6d'
p261
asI1486316041
(lp262
S'5d357ecd-678c-4a40-b64d-60623043d6a8'
p263
asI1486359050
(lp264
S'947b9eb4-19e6-4612-ad32-846b05a56cc6'
p265
aS'a765e3ba-d8ff-447f-a1d0-4192d18f04b5'
p266
asI1486354520
(lp267
S'5510d556-a145-4e68-b940-f3fb3b78a987'
p268
asI1486359082
(lp269
S'2d9b3341-56ca-4a35-86bf-21f59798808a'
p270
asI1486316075
(lp271
S'b38254bb-84b0-4bb7-a2ee-567aa4253f9b'
p272
asI1486357037
(lp273
S'3429a226-9e03-4729-835a-41ee88c331bf'
p274
asI1486340656
(lp275
S'fc080c24-df36-4134-96a0-2100299127b1'
p276
asI1486361137
(lp277
S'037f8bea-bd1d-4111-b8ca-e5369409b542'
p278
asI1486334729
(lp279
S'74e12169-52eb-4b77-a905-976943f7499d'
p280
asI1486322232
(lp281
S'8b19e07b-ab48-4d04-9636-cb4447a6201d'
p282
asI1486350917
(lp283
S'9d539046-51bc-4433-9657-e8b224d7a091'
p284
asI1486367302
(lp285
S'7728fb76-4899-4076-97fc-38e269728f9a'
p286
asI1486324298
(lp287
S'7455dddc-c91c-4a02-8af7-4e51ce43e1a7'
p288
asI1486322252
(lp289
S'08237050-b347-47dd-867d-71046ef776a4'
p290
asI1486381647
(lp291
S'd8ba6121-8fc0-4729-84c4-02aab2240981'
p292
asI1486395990
(lp293
S'28c64f07-c200-4f62-a0a6-5dbb12dea12d'
p294
asI1486387804
(lp295
S'84e4a8a0-44a6-4972-ad93-417db420cea6'
p296
asI1486334559
(lp297
S'fa9a2928-322b-4efd-91dd-7cfc11f06623'
p298
asI1486312032
(lp299
S'2d435ade-b240-461c-ae16-f41721507b5c'
p300
asI1486371427
(lp301
S'a581523a-fe5d-44e2-824c-c02cad08fbc0'
p302
asI1486389873
(lp303
S'1141a052-b9e3-4f2d-8a8b-0666f83b2c1a'
p304
asI1486361214
(lp305
S'c372b165-829d-4101-9937-a3bd52d2a4ae'
p306
asI1486371455
(lp307
S'1ab906d1-126e-41e6-bf8b-17e692ab2054'
p308
asI1486318208
(lp309
S'58001f98-cfca-461e-bdf3-caf825e8e12c'
p310
asI1486338693
(lp311
S'6a29b311-3ee3-4346-beb0-475e06c9a0c2'
p312
asI1486368193
(lp313
S'7c6e7ddf-7940-485c-850e-0036cbdfb7c0'
p314
asI1486319724
(lp315
S'429f0e99-1d05-41d9-a649-2fa73161c540'
p316
asI1486320267
(lp317
S'a76a31c1-067f-468d-9fd6-fc9cff2add96'
p318
asI1486358979
(lp319
S'91a4343f-23b3-476f-b5d4-2bf754d498b2'
p320
asI1486371480
(lp321
S'0877f537-a704-4b3f-85e8-ef47e7e7cc74'
p322
asI1486344862
(lp323
S'56d78cee-b640-4de1-aaef-9b6ca31c5c2e'
p324
asI1486379691
(lp325
S'2f846e18-5305-4282-af0b-c73544077af7'
p326
asI1486355121
(lp327
S'736be876-71f5-4ffe-9cf0-f356f614ebf9'
p328
asI1486359221
(lp329
S'fd7b7ebf-8aa9-4dbe-8840-57587de546b7'
p330
asI1486328503
(lp331
S'a2d09f64-14ce-41ef-a847-c653f60dc3b7'
p332
asI1486351032
(lp333
S'bc8b9e9a-a34e-4e2d-901f-195f6dfc9f00'
p334
asI1486346939
(lp335
S'728962c6-25ed-4da6-876e-4cebf687e35a'
p336
asI1486330561
(lp337
S'5527de04-4777-4b40-9eb3-391c8938833f'
p338
asI1486336706
(lp339
S'287aad8f-debd-40a8-80f3-8966deb61cab'
p340
asI1486359239
(lp341
S'61819b0a-d744-4705-95be-91751dd5f78f'
p342
asI1486394062
(lp343
S'9c79f9c9-d45a-49ed-8dec-7dac81923c35'
p344
asI1486346961
(lp345
S'1c774575-b4ef-400c-8a71-23ff3ef296cc'
p346
asI1486367445
(lp347
S'ff3a20df-452e-4bde-a05b-0135bbfc0991'
p348
asI1486324443
(lp349
S'742a71a5-0ad6-4b12-8729-be4d4b6edc0b'
p350
asI1486349021
(lp351
S'bed08f7d-9403-4c3f-9d8f-19bd8967db11'
p352
asI1486325541
(lp353
S'8573f37e-9455-4163-82ec-7b8463089b0d'
p354
asI1486334691
(lp355
S'953faef3-995f-485c-8cd4-aa3b8b8706bc'
p356
asI1486351142
(lp357
S'2a55a0b0-09fb-43b4-aa6c-c971ddc320b1'
p358
asI1486342892
(lp359
S'202185a2-25f3-4879-abaa-7c03b4c40bac'
p360
asI1486357230
(lp361
S'2edaccfa-4156-4e2d-a8ea-ca5d460867ea'
p362
asI1486392051
(lp363
S'a5b21ab1-4fd8-445e-8b68-c3493c98f037'
p364
asI1486357239
(lp365
S'04e661fd-950b-440c-9b55-19b36a337a45'
p366
asI1486396154
(lp367
S'9af2e861-b110-45b3-b0bf-24284fafa231'
p368
asI1486330630
(lp369
S'026b496b-678a-4871-92d2-363201238a67'
p370
asI1486351112
(lp371
S'735451d8-a5ce-42ec-894d-c2876a4806e1'
p372
asI1486387977
(lp373
S'87ddc316-77c0-423c-bae5-ed93839bae0a'
p374
asI1486324493
(lp375
S'1f090b09-52f1-4bb3-b050-45db2e259e02'
p376
asI1486314255
(lp377
S'198a4ee4-c9fe-44aa-b1b5-eede288a7b22'
p378
asI1486326547
(lp379
S'cafa0cb5-131c-4e98-a9b2-b53ab4f7ddff'
p380
asI1486328600
(lp381
S'7aee0fc2-4739-436c-8547-07a329ad1957'
p382
asI1486361733
(lp383
S'37efbd9c-943f-4799-bf4f-7cf5bccc3f4f'
p384
asI1486371622
(lp385
S'eec56fe2-655c-4157-bac2-1f30b5b4a551'
p386
asI1486365484
(lp387
S'cc157204-a749-42f6-9aad-758724ab9724'
p388
asI1486311218
(lp389
S'dba0cfc4-a2a0-41bd-a821-e1959a65d914'
p390
asI1486357301
(lp391
S'04a80d04-2a29-4cf7-883a-801910401b76'
p392
asI1486371639
(lp393
S'9e206d7c-9a1b-42a6-b795-39f665ea3967'
p394
asI1486326587
(lp395
S'b0a3994b-7d22-4564-805d-31cb88418e7f'
p396
asI1486316351
(lp397
S'40d1d8a8-47ac-44f0-81dc-f8d5a51035b6'
p398
asI1486345024
(lp399
S'3e61fcab-ba05-4cc9-ba01-2bcc337d9406'
p400
asI1486319755
(lp401
S'33eaea99-5ef3-42d8-b723-e6c9181f8918'
p402
asI1486347078
(lp403
S'f537d261-b4eb-4c00-903e-d776bab2b298'
p404
asI1486327948
(lp405
S'6f96f6a1-fb07-436b-b663-2636660fc492'
p406
asI1486345034
(lp407
S'd3ce94bf-5a9d-489d-bd1a-cc0c37604954'
p408
asI1486334795
(lp409
S'd3ba4936-b2af-495c-8e9b-a8ab43986813'
p410
asI1486357326
(lp411
S'ca80644e-8d35-4a3c-9c24-5e0ea68e6c30'
p412
asI1486329315
(lp413
S'204a9cf9-3b71-4b31-8de0-5dd8fa96d7d0'
p414
asI1486345054
(lp415
S'e49faa4e-5a32-4f64-be60-21c3ddf8651b'
p416
asI1486381920
(lp417
S'd3c0a2a5-f636-497e-84f2-1089739d61ff'
p418
asI1486363792
(lp419
S'c30dfaf3-dfa6-49a6-a78a-2ba73c6f5c52'
p420
asI1486320485
(lp421
S'9c9f10e1-9a46-457f-bdf3-6c12ab4de04a'
p422
asI1486324587
(lp423
S'a496732c-b034-418d-aaf5-ccf9011802ff'
p424
asI1486345072
(lp425
S'5bbd94ce-ed72-43ac-9bb8-cf62c189c28c'
p426
asI1486326646
(lp427
S'79c88a10-0ccb-4cb0-b4b6-ef2438c08ca7'
p428
asI1486349177
(lp429
S'94520f8f-836f-4bc1-8f8a-60d4c941720f'
p430
asI1486340990
(lp431
S'58056df8-c507-42d1-a5c5-b24f5d20294a'
p432
asI1486355327
(lp433
S'c9e24f13-6d72-4598-93e0-d2b202096e35'
p434
asI1486349190
(lp435
S'7b620ad9-ff79-4cfc-8025-38a91ce2b7ec'
p436
asI1486326666
(lp437
S'784383fd-bab5-48b2-bede-8edc6c631f09'
p438
asI1486347158
(lp439
S'56fb9859-c731-4567-b8de-09ba152feba9'
p440
asI1486386073
(lp441
S'1db1ab6f-7ae5-45d3-b5f7-514f2843ef9f'
p442
asI1486371740
(lp443
S'23e0c406-3924-44f5-835c-d71392c2296a'
p444
asI1486328739
(lp445
S'20416002-fa48-4008-836a-499cea66b487'
p446
asI1486359469
(lp447
S'9f130b91-f2b1-4137-9a5b-f886f18a7557'
p448
asI1486361522
(lp449
S'27945253-d4c4-4997-bf17-f81a3e8397ac'
p450
asI1486315253
(lp451
S'b78023ec-cfcc-447d-8682-2de675662b15'
p452
asI1486347188
(lp453
S'263b1c96-57f3-4d8f-9cc5-aaae07c580b2'
p454
asI1486378142
(lp455
S'a94440d5-ce8b-4e13-9eb9-539042dd037f'
p456
asI1486388151
(lp457
S'd0bbf85b-c744-491d-b7e6-fe938c41e90a'
p458
asI1486329332
(lp459
S'fd5bcfc5-ed79-4f7b-8251-9475e1dd2dd2'
p460
asI1486345150
(lp461
S'26d84de0-e206-47c7-b90f-6831a14e56c4'
p462
asI1486339011
(lp463
S'83c37b2b-9c12-4457-b9fb-d520d77a2912'
p464
asI1486347205
(lp465
S'5bcbf6f8-70c3-4919-9f27-3ff959e58f6e'
p466
asI1486386129
(lp467
S'de5845e8-d68a-415e-b5cb-791c844445a2'
p468
asI1486324691
(lp469
S'942b83c1-6b51-4b74-806f-446958627142'
p470
asI1486369750
(lp471
S'206a6698-3ae2-4f46-98d8-c9b493e25f84'
p472
asI1486322656
(lp473
S'a01a24a2-040e-45e3-834b-1b2ffe31c5ac'
p474
asI1486341095
(lp475
S'4935a26a-47d9-42e0-b065-db52c3903655'
p476
asI1486314477
(lp477
S'a61ad800-1aea-4e57-8c4f-f7f934b1d0d4'
p478
asI1486339055
(lp479
S'94e9381f-2f8d-46c9-8da7-aced16415506'
p480
asI1486343172
(lp481
S'0aae994d-95fb-483f-be6c-17ffe6084b20'
p482
asI1486320647
(lp483
S'15bd9e76-6f57-48d4-ba92-c0ce62ac388c'
p484
asI1486343183
(lp485
S'ebfb503b-5a5e-40d1-b2fe-f96a523781cf'
p486
asI1486326804
(lp487
S'ad49dab3-0a9a-4ead-91b5-ca966f1abe3d'
p488
asI1486330901
(lp489
S'f4a96f99-7215-4ac1-b215-fa23dde26dfd'
p490
asI1486310426
(lp491
S'99936fb9-0a02-41bf-b156-edb8042b2981'
p492
asI1486367772
(lp493
S'8b55ff9a-c46a-4838-a9dc-3aa326e85769'
p494
asI1486324769
(lp495
S'8b8921c9-ed95-4599-b7eb-da18d0a1f972'
p496
asI1486347303
(lp497
S'95434e83-1525-4c2d-a6ca-b9071449f8f5'
p498
asI1486388266
(lp499
S'08953451-e1b4-480d-a5ac-73a1b3f8a39a'
p500
asI1486345261
(lp501
S'93d55c9e-dc7a-455f-914d-2c3bfdb00624'
p502
asI1486380078
(lp503
S'07912bc9-46e1-40ea-8409-7d98746a30ed'
p504
asI1486363695
(lp505
S'01106f01-ff1d-483a-87dc-e528fa219d70'
p506
asI1486382130
(lp507
S'3626b93e-74ce-47d7-8dc3-3d6a01c9a5f9'
p508
asI1486355513
(lp509
S'df1c5939-67f1-4046-b639-b0c2ac942625'
p510
asI1486363707
(lp511
S'ef978d31-e68f-40ef-a44c-a9ebcd1a7421'
p512
asI1486345280
(lp513
S'02e787f9-742a-4072-9f60-ed3999d33efd'
p514
asI1486349152
(lp515
S'0608e958-2ae6-4e9a-9a7c-1f4a54a23715'
p516
asI1486312515
(lp517
S'61025da8-b0e6-40a5-b659-7523d83ecd60'
p518
asI1486324804
(lp519
S'7d8edb2e-def9-4623-a86a-b215965e61aa'
p520
asI1486337093
(lp521
S'69fa2215-a5c6-470c-9150-c4030a1e9fd7'
p522
asI1486328915
(lp523
S'f7345da0-de2a-4012-8b3a-08a769ac503d'
p524
asI1486380118
(lp525
S'9af73757-ea5c-42be-a787-98bf7ca15166'
p526
asI1486357349
(lp527
S'4546b9d9-cc8d-47d6-a323-eefda815dc9a'
p528
asI1486357607
(lp529
S'37672d79-dcec-4209-ac1c-c60038e40647'
p530
asI1486365806
(lp531
S'9abc6a40-c04f-4c6b-8319-89e0794807ab'
p532
asI1486341234
(lp533
S'acec2d35-1433-41be-9dc4-c6fb82e867dc'
p534
asI1486382196
(lp535
S'599f1695-496a-4b65-8603-746502ce6fa7'
p536
asI1486365816
(lp537
S'69c08837-9a6c-4ddc-9ebe-9ccf93b73fe6'
p538
asI1486386299
(lp539
S'ed861e49-1981-42ab-9654-1ada89798f7c'
p540
asI1486328958
(lp541
S'97683674-ff1f-4743-bbef-1809a8d08f4e'
p542
asI1486376063
(lp543
S'5a11218e-ce53-473f-91e2-9b4c639010da'
p544
asI1486333056
(lp545
S'aedef48b-2d34-49f7-996a-8b2b80ffe2a3'
p546
asI1486320770
(lp547
S'f28853cc-f2b4-4c5b-a9a0-e0b3bdd9f361'
p548
asI1486357635
(lp549
S'f68f1542-5e66-4296-b9bf-a8d486c54175'
p550
asI1486378117
(lp551
S'7b3f4c36-5616-4021-b80d-3b2481f6c745'
p552
asI1486318729
(lp553
S'd402602f-eff7-4457-80da-02f89d9d8e4d'
p554
asI1486312592
(lp555
S'8f8e23cf-b0b3-47bb-a3f0-aa5e3e1f06f4'
p556
asI1486369937
(lp557
S'f0ea34b3-1eaa-4475-9bff-5d9ad8936eae'
p558
asI1486358041
(lp559
S'03749a41-86b3-443e-912f-e232373b8dfd'
p560
asI1486333085
(lp561
S'4750a4ba-46ab-47b6-b616-3373476cccd4'
p562
asI1486374046
(lp563
S'83cbab73-d333-4f50-85dc-58c78e68240c'
p564
asI1486351522
(lp565
S'51ffdf80-fa05-4e7a-bacc-b13a23b997ed'
p566
asI1486392486
(lp567
S'429d95bb-b45c-4718-89a9-966e15ab212c'
p568
asI1486347431
(lp569
S'a4c37c72-a716-4494-a9ec-c222be3d6f66'
p570
asI1486384298
(lp571
S'778d0381-7059-4265-91cc-0d2ff6d78487'
p572
asI1486378155
(lp573
S'786aa32f-813d-427e-a957-348d5991c869'
p574
asI1486349489
(lp575
S'b6e96b21-2280-4b01-bc4e-f996aa34c675'
p576
asI1486314674
(lp577
S'17b1077d-ee88-41bb-9818-386d269ad1ec'
p578
asI1486320834
(lp579
S'4fc305c6-5e5e-401b-8cb4-e59c6b8d941d'
p580
asI1486326983
(lp581
S'b846c85b-a8d8-47c8-a608-546b9be60125'
p582
asI1486345425
(lp583
S'95845aed-ceb7-476d-aa4b-d6f2334eeeae'
p584
asI1486386397
(lp585
S'55c0d04d-2b02-4ce7-b157-f38fd5c65068'
p586
asI1486347487
(lp587
S'31655c50-da3d-4ed1-99c0-3560922c2e1b'
p588
asI1486318823
(lp589
S'5d4348f4-b950-41da-be1d-f18c3a8c7b40'
p590
asI1486353642
(lp591
S'4910d440-9190-45d4-b050-42f23681e827'
p592
aS'c4c60084-1915-4dc3-be55-1a158f8d3509'
p593
asI1486322925
(lp594
S'a39441ac-b25d-47a3-b458-63c96b7362e2'
p595
asI1486382326
(lp596
S'8e2a7635-3f3b-458f-bbf7-cd508e819851'
p597
asI1486352635
(lp598
S'66dd52f7-50aa-4be3-9fd7-bb74e6b939cf'
p599
asI1486376186
(lp600
S'48788e18-01e6-4f99-9f6a-37ce454d9b70'
p601
asI1486337919
(lp602
S'dd5bd9bf-5ffe-4a42-9a48-9797242bde18'
p603
asI1486347516
(lp604
S'5b4f7156-10e4-4444-b57e-bd7735a01f4f'
p605
asI1486376194
(lp606
S'f36e3c2e-85c0-49bd-b6ad-73b87e365c0c'
p607
asI1486370051
(lp608
S'fb4ab9d9-a9d6-49ba-a4d3-ec33fba36d97'
p609
asI1486394628
(lp610
S'ae83ba56-e495-48cd-ab4c-21914f446ab1'
p611
asI1486351621
(lp612
S'50f45e87-26fb-4bfc-a3ac-ab39bf9aaafd'
p613
asI1486353670
(lp614
S'89e91e35-5890-4610-93bb-2c28bc0915e4'
p615
asI1486329099
(lp616
S'8e8940db-9e66-4c38-a2a3-23b0d23599dc'
p617
asI1486370073
(lp618
S'2545cb7d-7caa-4c9e-8da9-88e13a4cdf8c'
p619
asI1486339631
(lp620
S'dfaa9f14-9853-48e7-ab6d-1ec9e01ddc57'
p621
asI1486312733
(lp622
S'a8a36ec8-6f13-4e4c-80d4-fe27b7386d96'
p623
asI1486320942
(lp624
S'b28709f8-452f-4e1c-8e64-a4978ff912c8'
p625
asI1486347567
(lp626
S'705eb93e-54a6-4a49-a5ff-922915d4617b'
p627
asI1486372149
(lp628
S'77f0c0f7-765c-4c69-b0f1-3b2882feddaa'
p629
asI1486320951
(lp630
S'4e95c02f-595a-4db5-9110-ace9fc2877bf'
p631
asI1486312760
(lp632
S'a996067f-e27f-4451-b7ee-d9dfedf50c58'
p633
asI1486357821
(lp634
S'49f3feca-bc92-4742-994f-1ddd8e728845'
p635
asI1486363969
(lp636
S'1abc4c18-d2fc-4b3f-8f79-fa0699eb3ac1'
p637
asI1486363971
(lp638
S'f4921cc5-9eb2-4352-92c0-416168ebc314'
p639
asI1486361924
(lp640
S'dde00b66-1ee6-4334-a886-94a0f19b49d7'
p641
asI1486383252
(lp642
S'275155a5-3d96-48a5-822b-a38b9760004a'
p643
asI1486376262
(lp644
S'ff8d1db0-e81e-4618-b029-4edd8341d66a'
p645
asI1486382409
(lp646
S'6e06adf6-af90-437e-809c-eabac2fda130'
p647
asI1486327114
(lp648
S'2235da69-43b7-49e7-ad9b-e6f52e19adfb'
p649
asI1486353739
(lp650
S'794bb389-dcfe-40a2-a7c1-461b7be7a544'
p651
asI1486343501
(lp652
S'bbab4308-a47e-4043-b46c-68c99fa9ef37'
p653
asI1486347611
(lp654
S'dee925a3-cf99-4b92-abd6-bb1fb4977cad'
p655
asI1486316894
(lp656
S'0cb27e03-8e36-452c-93a6-822489704584'
p657
asI1486320992
(lp658
S'73b58001-d1fe-4988-a73c-e546c6ff6645'
p659
asI1486394737
(lp660
S'0d52d6c9-b5c5-4a5e-8a63-e2910f1834ef'
p661
asI1486310771
(lp662
S'c47a9afb-d933-4254-acdf-926abcf97bf8'
p663
asI1486382452
(lp664
S'006995ea-ea0f-442c-b8f3-9b944f900203'
p665
asI1486382462
(lp666
S'24fe70d0-b220-41ce-a54d-02fe7f6f81aa'
p667
asI1486368131
(lp668
S'aba436d6-3ecd-4d50-9c40-de2a44b2c548'
p669
asI1486321029
(lp670
S'fa90409d-9773-49ea-b7e0-1eb0caa44e18'
p671
asI1486374286
(lp672
S'6fa0b632-ac98-4576-b6c5-8639b8f367d2'
p673
asI1486335213
(lp674
S'587807b2-f539-44d3-a19c-b1980c88dc9f'
p675
asI1486323088
(lp676
S'456ccc6f-c729-470c-bc34-ca9015a8cd0d'
p677
asI1486310801
(lp678
S'54ed6bb2-ea9e-4ae7-af9f-e5ca6e554318'
p679
asI1486347667
(lp680
S'2f16f6dd-668f-4a61-91e4-aaeea73933d6'
p681
asI1486310809
(lp682
S'fb64b342-21d2-455e-bea5-2f4a866453f4'
p683
asI1486312864
(lp684
S'd60d60dd-9cb2-48d0-925a-bb51db940e8e'
p685
asI1486353826
(lp686
S'e74fc8d9-a534-4727-8ba6-acbef2c8706d'
p687
asI1486329259
(lp688
S'68a8e214-98fa-43f7-bbae-ebdd35b8e990'
p689
aS'7e591945-208c-4b58-b839-bd2913504699'
p690
asI1486327219
(lp691
S'6d11f51a-6d13-434a-9e5c-68ef6dda01ac'
p692
asI1486347700
(lp693
S'd1b7b3b6-0cfd-4d5d-ab18-723fa4fddfab'
p694
asI1486384569
(lp695
S'ce97209f-4131-4817-88e1-77cd7e02b078'
p696
asI1486332490
(lp697
S'c89b9841-5481-47d0-8f74-4930028bf4e7'
p698
asI1486321087
(lp699
S'abbe284a-5280-43b2-be9a-eff2e7c1d425'
p700
asI1486314945
(lp701
S'8f24e7dd-98ac-4b36-bf3f-02a985c3484b'
p702
asI1486339522
(lp703
S'4439662f-2bfa-4dcf-9175-bc040f011f6f'
p704
asI1486364103
(lp705
S'42811fb5-3a04-40df-b244-1ad74672f84a'
p706
asI1486314953
(lp707
S'cf03946e-0bd8-443b-bbd2-1257f69e22e7'
p708
asI1486345674
(lp709
S'87e683b1-e5f7-4c0f-8aab-6c2da0977636'
p710
asI1486317003
(lp711
S'20bd38b9-8245-4ce3-bc54-aecf15166549'
p712
asI1486333389
(lp713
S'2f6d3ad1-8f05-4c38-b3e0-099e02e11faa'
p714
asI1486343630
(lp715
S'b271ce6a-8378-459d-aed8-2d4dcf57a2d7'
p716
asI1486380499
(lp717
S'c268e35d-6e76-41dc-88fe-cdb491ad5e8f'
p718
asI1486321109
(lp719
S'cee6fcdc-4a77-4fa2-a704-daeb44484ff1'
p720
asI1486371065
(lp721
S'9dc7de84-e0a7-4ea7-a30b-afe555637a49'
p722
asI1486374369
(lp723
S'71bd68f6-1491-4090-a455-a3f0395b972a'
p724
asI1486385403
(lp725
S'dffc54ce-94b9-4665-8a2b-ca94c1426eac'
p726
asI1486378484
(lp727
S'da577e97-7e75-4a71-8105-87e587b4e614'
p728
asI1486378490
(lp729
S'f1cba2af-cc48-486c-9eb0-72d7670010a8'
p730
asI1486388733
(lp731
S'23fe4b71-b174-483e-a8cb-b97a13af5864'
p732
asI1486392832
(lp733
S'f4120a91-d5e6-4675-b1cf-b6adc608c49f'
p734
asI1486380546
(lp735
S'8b2bf435-b1a9-421a-b2af-ed7974eebb30'
p736
asI1486376455
(lp737
S'bdb1688a-19fa-421f-a861-ea3d288a9bfe'
p738
asI1486341640
(lp739
S'8be6c413-56d5-48d6-b8da-08b05cfb3e8f'
p740
asI1486321164
(lp741
S'95bd9cbc-26da-4d3d-bddd-a84783eb0c01'
p742
asI1486347792
(lp743
S'abe29a8f-e682-40b2-9b0d-a555f00280e4'
p744
asI1486353939
(lp745
S'2edbba6f-8932-4322-89c3-f9abdced7e4a'
p746
asI1486317079
(lp747
S'5f396c62-2af3-4bac-a81b-d977fd8524f4'
p748
asI1486319129
(lp749
S'1db5eb76-a76a-4674-b7b8-5bdb2d875e4b'
p750
asI1486384666
(lp751
S'051926d6-c42e-4b4c-851d-560ce48f06c7'
p752
asI1486333468
(lp753
S'e89af7da-4cc4-47bf-99d1-684a41122155'
p754
asI1486327386
(lp755
S'0001afbe-924d-486c-8734-495cae4de368'
p756
asI1486351903
(lp757
S'8e231d40-c7d1-4d8b-a67b-2627a015adca'
p758
asI1486390816
(lp759
S'e47cad87-d641-4df7-8eca-fb7dbb29cd0b'
p760
asI1486341042
(lp761
S'0423a29b-51e7-4a66-89a3-449fa3876674'
p762
asI1486364206
(lp763
S'60b12eaf-7af3-4787-963f-05841f2fd11f'
p764
asI1486347823
(lp765
S'78c0a044-a66d-40ff-a669-68b79fb591c3'
p766
asI1486328072
(lp767
S'c95dabc6-4b5d-4009-bfa9-1980c8686fc1'
p768
asI1486394291
(lp769
S'a2b0dff5-4a67-41df-bdff-fb72f5146982'
p770
asI1486360117
(lp771
S'bab1cf49-214d-4b93-9d2c-f78861f746a4'
p772
asI1486390838
(lp773
S'758fd49c-af90-4a61-8aa2-7674eabb96ad'
p774
asI1486337598
(lp775
S'4f2acaf9-e8cf-4eac-9e24-dde83aa3f53e'
p776
asI1486339650
(lp777
S'57737e23-e0fc-40ed-b35b-d55276162179'
p778
asI1486335556
(lp779
S'9928b559-2051-42f2-8a9e-2c79a824df29'
p780
asI1486329413
(lp781
S'90db020f-a7aa-40fa-bd9c-b1fe448c5f58'
p782
asI1486364235
(lp783
S'85bb44ce-b244-4583-bd83-fc2a01c6bba1'
p784
asI1486374478
(lp785
S'0bdab1e8-35ef-4974-b227-6a7bdbca7c3f'
p786
asI1486317141
(lp787
S'93344664-9af8-4873-b959-7887c30f7f48'
p788
asI1486343769
(lp789
S'08be8659-9151-4afd-9f58-22128cc8c19d'
p790
asI1486331482
(lp791
S'4b914253-e9dd-480f-87c4-4a312522df29'
p792
asI1486372446
(lp793
S'0d785f78-7b11-427b-a59a-77f516dfd941'
p794
asI1486384736
(lp795
S'69c6c858-3160-4a64-b4c7-804d22de36fb'
p796
asI1486382696
(lp797
S'6c530c38-53d7-48f4-ae64-d1b86d3ec112'
p798
asI1486311018
(lp799
S'ce34eba6-7e20-47e5-bc98-15e49104d47c'
p800
asI1486362220
(lp801
S'77508efc-d73b-4895-a047-7834d07b3a77'
p802
asI1486358125
(lp803
S'371695c6-a896-42d6-9089-005076f3f021'
p804
asI1486351989
(lp805
S'97e5c38b-2b89-46ef-87a2-cd168e7a5dcc'
p806
asI1486380662
(lp807
S'153567bb-9a46-49ed-8907-c7ab2632d0e1'
p808
asI1486364280
(lp809
S'62307d0a-9e9d-4852-9202-45baf8b4ac9a'
p810
asI1486339706
(lp811
S'7a41b0c7-22aa-4eee-b4d1-6a1ba49cb36b'
p812
asI1486382720
(lp813
S'dc273d3b-0298-4728-997f-43cf95400496'
p814
asI1486333572
(lp815
S'4a7d0b7d-875c-4747-be9e-53b7811089cb'
p816
asI1486384774
(lp817
S'18070aa8-093e-4a94-a76a-31a3b31301de'
p818
asI1486341768
(lp819
S'9cfd45f4-6962-4813-b95c-da640293d216'
p820
asI1486378634
(lp821
S'b6c02d92-2edc-44f5-8089-ad62f00f4aa9'
p822
asI1486364610
(lp823
S'19026ba1-a8eb-4f80-9bcb-d340b5b256cc'
p824
asI1486345878
(lp825
S'63cc8427-9874-4edb-9db5-bab3ce168f0c'
p826
asI1486362905
(lp827
S'a8d3135a-3974-4c9e-8625-7557a586f1e4'
p828
asI1486360217
(lp829
S'4f15a256-6fc5-40aa-8ad6-ef26e3edd65d'
p830
asI1486327452
(lp831
S'c870a649-ff62-4d8c-b4b9-8a65628d8af7'
p832
asI1486317215
(lp833
S'57a6ab4b-65d5-48f1-9e22-99093fc0a839'
p834
asI1486319272
(lp835
S'77e0d96d-2734-49ed-af19-abaca4a3a517'
p836
asI1486358185
(lp837
S'e9d6bd1a-8cd0-4237-b64c-a0f822546515'
p838
asI1486350000
(lp839
S'bc5502de-54f5-4551-9283-51e6cc841ea4'
p840
asI1486356145
(lp841
S'4c897f03-aced-488a-8a5f-b784bb663087'
p842
asI1486317237
(lp843
S'101395a8-f131-4a30-b227-bb296ad4d4e6'
p844
asI1486364346
(lp845
S'a673a161-b99b-4112-b8db-9e64935397fb'
p846
asI1486366400
(lp847
S'10b56bc2-91f6-4ef7-83fc-709a7447fa53'
p848
asI1486337731
(lp849
S'b5c9dafe-8903-478f-94ec-cfe7d106f22e'
p850
asI1486393030
(lp851
S'35da6806-b7d4-4839-883d-3f768a3adfcf'
p852
asI1486382791
(lp853
S'f885a3d3-9dd4-4d38-b89c-52d542ddf72a'
p854
asI1486362315
(lp855
S'1a989539-e6b7-4ae5-b489-c051ed5ca733'
p856
asI1486366412
(lp857
S'8fb9eed8-58a8-479d-bd42-690af423bde2'
p858
asI1486339789
(lp859
S'13bba83f-1f86-40a3-b326-0d625beebbf3'
p860
asI1486339799
(lp861
S'45bd75f5-4b7c-461b-af8d-2a6589c3b702'
p862
asI1486358232
(lp863
S'10706ecb-feb3-4332-8826-60924a0b4149'
p864
asI1486315225
(lp865
S'282a69d1-4818-482b-b5cb-0a83015ca6bc'
p866
asI1486395102
(lp867
S'42877f67-3413-4047-8f42-94602224d2c3'
p868
asI1486313183
(lp869
S'a01d7e48-c844-4bce-82a3-4d08573fc925'
p870
asI1486333670
(lp871
S'81815326-437f-407c-b1b8-c1bc935041dd'
p872
asI1486372593
(lp873
S'7ac9fae6-a6e6-4807-819a-0839a0fa8047'
p874
asI1486345171
(lp875
S'5765bc27-5b1a-4ace-afcf-133ae0fa7111'
p876
asI1486350068
(lp877
S'6af49cf9-1514-47ef-be3d-3b06e8cea65f'
p878
asI1486368501
(lp879
S'09b43279-95bd-47b4-ae97-dff389c358f0'
p880
asI1486386941
(lp881
S'fd7bb9d5-5b52-4c16-a725-a1f8df146bd5'
p882
asI1486311166
(lp883
S'c6514001-a088-4d14-bd67-b90174f8a0cb'
p884
asI1486315136
(lp885
S'9efd2dd7-7818-4d99-bdb0-d5f42e5c87c4'
p886
asI1486391054
(lp887
S'7162c4df-128a-4fcb-862b-a4fd356d011e'
p888
asI1486370577
(lp889
S'e12ff97b-7815-4c8d-a076-7eca6aba7acc'
p890
asI1486393107
(lp891
S'f272cd7f-1751-44c3-b70d-d8be480dc606'
p892
asI1486321441
(lp893
S'b655eb58-5765-4e84-879f-e2cd081934e1'
p894
asI1486333733
(lp895
S'e1b1cbcd-3d50-49a0-ad44-2b2c82ba8aa2'
p896
asI1486327592
(lp897
S'5a9bba80-a32d-4a9c-b3b8-91580350a326'
p898
asI1486335790
(lp899
S'1b80519f-bad9-4092-9b59-0f828a169710'
p900
asI1486323506
(lp901
S'a33e70d8-e084-46ee-933a-bdd7cc94b943'
p902
asI1486321630
(lp903
S'b3f5fc43-fdd5-4a44-88c0-92dae8581466'
p904
asI1486366518
(lp905
S'c616e944-dca5-4be1-b418-a26c62738584'
p906
asI1486352184
(lp907
S'4c7c7c5d-4bb5-40d7-be67-401601c7c843'
p908
asI1486352190
(lp909
S'e1a06a7e-6ae0-40c5-b3ef-9b779901ee7f'
p910
asI1486313285
(lp911
S'877c0e9c-c91b-4e30-9d67-1598896373de'
p912
asI1486390925
(lp913
S'8321d5f7-0711-4c9f-8b3a-89384ac140d4'
p914
asI1486352211
(lp915
S'45d4d716-93cd-4ae6-a8eb-6f360b7c123d'
p916
asI1486339924
(lp917
S'52a0c7a7-65ec-4132-9bb8-4bad6c949227'
p918
asI1486382943
(lp919
S'f9fde49c-0cee-4dba-b373-be28bff2151f'
p920
asI1486387042
(lp921
S'0eec80d5-0893-4e6a-8cf4-81bef3f7cae3'
p922
asI1486316519
(lp923
S'6f4fc4bb-ed11-4692-bbf9-39dcbc9e47cd'
p924
asI1486386493
(lp925
S'1bcdae45-c5eb-4479-9bac-abaefaf2adf4'
p926
asI1486368626
(lp927
S'82a3f7b6-6d0c-49f3-a9ca-4a48550528bc'
p928
asI1486393209
(lp929
S'2601c933-7d58-4075-a4ec-a3900e506b1e'
p930
asI1486313340
(lp931
S'a8a4dbe9-54e3-4ce1-9272-00750affd0de'
p932
asI1486376829
(lp933
S'11a10eb5-7765-4a30-b74c-55245b36863a'
p934
asI1486354303
(lp935
S'09fd4457-f5f5-4f72-910f-9231fef59029'
p936
asI1486348163
(lp937
S'20b3802a-2a09-48d0-8e26-32bb02b29016'
p938
asI1486360452
(lp939
S'501a9d1e-06ba-45a5-b38e-c8d8c3dcbdfd'
p940
asI1486344069
(lp941
S'cba8b5a3-084c-439a-a403-f68a0b1a5c9d'
p942
asI1486378889
(lp943
S'38c95d0d-2e50-4497-aa42-d5837affcfc3'
p944
asI1486366359
(lp945
S'45c04c70-e012-4e52-831a-b56520454801'
p946
asI1486327692
(lp947
S'd4676de9-8637-444d-b45a-e31803ba9659'
p948
asI1486329741
(lp949
S'fde6f79d-b4a7-40b4-b6de-83a0eb4e4461'
p950
asI1486354318
(lp951
S'2faf8bd3-a17b-4708-b640-0d7db8d70908'
p952
asI1486391183
(lp953
S'a45f1f51-0df7-4000-a4e9-34b8f6c6ba81'
p954
asI1486329749
(lp955
S'308a8027-d26e-4dba-9b48-d0d9a2110201'
p956
asI1486393239
(lp957
S'f1cbc8cb-1e8f-4140-8c4a-ff7a206650d0'
p958
asI1486347247
(lp959
S'0ffa240a-4ebb-42d0-affb-3718170abbb9'
p960
asI1486348189
(lp961
S'0c05fef8-a1d2-4944-a84f-136b15f279e0'
p962
asI1486319523
(lp963
S'bd56a01b-2c14-46b3-bce5-5de02290826e'
p964
asI1486376870
(lp965
S'a0ebcfac-afc2-4694-bf15-111b5b9d1ca3'
p966
asI1486352301
(lp967
S'864ddcd6-2643-4359-a2e8-006e1c95106a'
p968
asI1486366640
(lp969
S'9be77dfc-3eee-4c4e-a029-b0d4c99b846c'
p970
asI1486360497
(lp971
S'a467e733-d066-4e09-8747-263aee6ea90e'
p972
asI1486344114
(lp973
S'265c8176-aeb5-4779-9874-f23acbbd3e00'
p974
asI1486383042
(lp975
S'a924e129-7fc6-464a-acf5-aaf138df88b8'
p976
asI1486319568
(lp977
S'ab2d4f72-c7c1-47bd-a0a0-d3e32e9c3769'
p978
asI1486327774
(lp979
S'86f4515b-a376-43d1-9dfa-fcff0a93a16f'
p980
asI1486342112
(lp981
S'22def2b6-0fcb-4906-af5b-3c9114184843'
p982
asI1486393314
(lp983
S'd11a853d-19d7-4fe5-84a6-d46af2dc2127'
p984
asI1486361730
(lp985
S'da3616cc-ab81-44e6-b73c-793906af182a'
p986
asI1486387175
(lp987
S'd3ea2ef5-b01e-482c-bf86-a228651aaaf9'
p988
asI1486346217
(lp989
S'636ce755-af57-4a1c-81bf-53d3a984f79e'
p990
asI1486366701
(lp991
S'885d8944-6506-4350-9abb-572b8b742cff'
p992
asI1486346228
(lp993
S'06077748-90fd-4023-8ce8-cceb56a2b156'
p994
asI1486354426
(lp995
S'5758e57c-f0f5-40f7-b33a-3c3fd4b1e5e1'
p996
as.