(dp0
S'5fef5d32-73d8-4bae-81f9-be9a45c3f404'
p1
(dp2
S'strtTime'
p3
S'1486902387'
p4
sS'service_id'
p5
g1
sS'state'
p6
S'NJ'
p7
sS'user_name'
p8
VJessica Myers
p9
sS'type'
p10
S'household'
p11
ssS'f985fb9c-88ee-4171-a5db-828126de397e'
p12
(dp13
g3
S'1486935685'
p14
sg5
g12
sg6
S'TN'
p15
sg8
VMichael Brown
p16
sg10
g11
ssS'd76adfb2-4b99-4f15-a2ca-8d9a6c9d7245'
p17
(dp18
g3
S'1486900358'
p19
sg5
g17
sg6
S'IN'
p20
sg8
VJacob Long
p21
sg10
g11
ssS'e5616cfb-00a3-460b-bb36-277d8dd0aad7'
p22
(dp23
g3
S'1486871903'
p24
sg5
g22
sg6
S'GA'
p25
sg8
VJessica Carrillo
p26
sg10
g11
ssS'54c853b9-2f70-4bf7-b590-b27ce0f553ce'
p27
(dp28
g3
S'1486877802'
p29
sg5
g27
sg6
S'OK'
p30
sg8
VAlicia Mcdonald
p31
sg10
g11
ssS'd834db49-9293-436e-8656-5ad77cc0c162'
p32
(dp33
g3
S'1486918768'
p34
sg5
g32
sg6
S'MS'
p35
sg8
VKathleen Cameron
p36
sg10
g11
ssS'74793557-0191-482d-b333-bf863b842102'
p37
(dp38
g3
S'1486859043'
p39
sg5
g37
sg6
S'AZ'
p40
sg8
VRebecca Morrow
p41
sg10
g11
ssS'c72fd15f-c51f-4169-bbb8-fc5594f760c2'
p42
(dp43
g3
S'1486880248'
p44
sg5
g42
sg6
g40
sg8
VSherry Porter
p45
sg10
g11
ssS'f7ccadaa-b22d-4342-bde6-543f345fc07b'
p46
(dp47
g3
S'1486893975'
p48
sg5
g46
sg6
S'CO'
p49
sg8
S'Morales Olson and Thompson'
p50
sg10
S'business'
p51
ssS'1e54905c-d0ff-4e0d-99b9-9be122f9c1cb'
p52
(dp53
g3
S'1486880300'
p54
sg5
g52
sg6
S'UT'
p55
sg8
VDevin Brown
p56
sg10
g11
ssS'f7ee76bb-cb65-4df1-91b5-1707a99113ec'
p57
(dp58
g3
S'1486896998'
p59
sg5
g57
sg6
S'MD'
p60
sg8
VJohn Spencer
p61
sg10
g11
ssS'3484180d-07f1-4175-baad-c7836055ed56'
p62
(dp63
g3
S'1486926496'
p64
sg5
g62
sg6
S'DE'
p65
sg8
VMonica Horton
p66
sg10
g11
ssS'cfdde393-98df-4689-89bb-14b1c554d812'
p67
(dp68
g3
S'1486891620'
p69
sg5
g67
sg6
S'FL'
p70
sg8
VMegan Conrad
p71
sg10
g11
ssS'4e9332f9-2994-4ae0-ac8e-9e30520e1700'
p72
(dp73
g3
S'1486912527'
p74
sg5
g72
sg6
S'IL'
p75
sg8
VColton Collier
p76
sg10
g11
ssS'0f9c4c6c-b633-442d-aeb1-44c6fccb2f7c'
p77
(dp78
g3
S'1486910595'
p79
sg5
g77
sg6
S'PA'
p80
sg8
VJeffrey Newton
p81
sg10
g11
ssS'd3dd7b40-550c-4ce0-b315-133e681cd5fe'
p82
(dp83
g3
S'1486890944'
p84
sg5
g82
sg6
S'IA'
p85
sg8
VDonald Espinoza
p86
sg10
g11
ssS'a80cd259-8f90-4ee3-a1e3-173ec8e88dfc'
p87
(dp88
g3
S'1486908896'
p89
sg5
g87
sg6
S'ME'
p90
sg8
VLance Silva
p91
sg10
g11
ssS'82b8615f-9381-40df-8d39-507d90c56060'
p92
(dp93
g3
S'1486937333'
p94
sg5
g92
sg6
g30
sg8
VAnn May
p95
sg10
g11
ssS'11a797d1-be94-4c8b-a7c8-898c6fe13a8f'
p96
(dp97
g3
S'1486899193'
p98
sg5
g96
sg6
S'WI'
p99
sg8
VWayne Newman
p100
sg10
g11
ssS'2770e5ce-2aa4-417c-8a79-b8779698ac7a'
p101
(dp102
g3
S'1486862003'
p103
sg5
g101
sg6
S'RI'
p104
sg8
VThomas Burns
p105
sg10
g11
ssS'29d9b002-e280-4cfd-98f3-28cd853f4a69'
p106
(dp107
g3
S'1486933857'
p108
sg5
g106
sg6
g65
sg8
VGregory Ellison
p109
sg10
g11
ssS'2a50dd9d-386a-494d-a2e3-5e3a4d40e6a8'
p110
(dp111
g3
S'1486872091'
p112
sg5
g110
sg6
g35
sg8
VHelen Jones
p113
sg10
g11
ssS'b068b48e-a2b4-4753-b6b6-ffb555ff9645'
p114
(dp115
g3
S'1486924873'
p116
sg5
g114
sg6
S'CA'
p117
sg8
S'Gomez Lee and Hunter'
p118
sg10
g51
ssS'0b5eb1a3-d9e8-4ae4-8b2b-b01b067337f0'
p119
(dp120
g3
S'1486907077'
p121
sg5
g119
sg6
g30
sg8
VMatthew Williams
p122
sg10
g11
ssS'5b5e6814-a5e3-4ec9-b691-b035fc0378bc'
p123
(dp124
g3
S'1486915013'
p125
sg5
g123
sg6
g117
sg8
VAnne Rodriguez
p126
sg10
g11
ssS'11deff48-dbc5-42bc-b75e-5687d00d01e9'
p127
(dp128
g3
S'1486939727'
p129
sg5
g127
sg6
S'ND'
p130
sg8
VAlexis Wade
p131
sg10
g11
ssS'49683811-e9e3-4379-9718-394e6b3e9fb9'
p132
(dp133
g3
S'1486901175'
p134
sg5
g132
sg6
S'DC'
p135
sg8
VPeter Juarez
p136
sg10
g11
ssS'dfe7c931-fce6-4d39-80ca-b811819c2686'
p137
(dp138
g3
S'1486940859'
p139
sg5
g137
sg6
g80
sg8
VJames Dennis
p140
sg10
g11
ssS'6cb4f89c-c71b-4873-9b4f-f00c3b247f36'
p141
(dp142
g3
S'1486909314'
p143
sg5
g141
sg6
g135
sg8
VAmber Hughes
p144
sg10
g11
ssS'65372e40-714d-4ba2-a10a-6511142cbf63'
p145
(dp146
g3
S'1486881084'
p147
sg5
g145
sg6
g130
sg8
VMatthew Banks
p148
sg10
g11
ssS'323b871a-c875-4d3b-b35f-f9773a71b0af'
p149
(dp150
g3
S'1486889137'
p151
sg5
g149
sg6
S'MN'
p152
sg8
VDr. Brianna Jackson MD
p153
sg10
g11
ssS'103ffebe-b96c-4e73-92cf-fe1617eaffa4'
p154
(dp155
g3
S'1486916874'
p156
sg5
g154
sg6
g55
sg8
VDr. Amy Oliver
p157
sg10
g11
ssS'14486b59-2954-406d-80d4-0653ec370cbb'
p158
(dp159
g3
S'1486894653'
p160
sg5
g158
sg6
g70
sg8
VHunter Perez
p161
sg10
g11
ssS'f56770d6-d7d3-443c-a6b1-6609677174e1'
p162
(dp163
g3
S'1486944681'
p164
sg5
g162
sg6
S'NE'
p165
sg8
VEduardo Brooks
p166
sg10
g11
ssS'd54b06c1-8833-4e73-bfdc-b842df254d4c'
p167
(dp168
g3
S'1486909402'
p169
sg5
g167
sg6
g152
sg8
VAnne Sloan
p170
sg10
g11
ssS'cd8a2f30-601d-48af-841a-63c6763ae498'
p171
(dp172
g3
S'1486933877'
p173
sg5
g171
sg6
g15
sg8
VKevin Simon
p174
sg10
g11
ssS'dc03ac49-c990-4127-827f-a9b3ba893c21'
p175
(dp176
g3
S'1486868825'
p177
sg5
g175
sg6
g70
sg8
VDeborah Carter
p178
sg10
g11
ssS'0a1892cf-b8cd-4c52-8830-6ed6a933aa5e'
p179
(dp180
g3
S'1486921837'
p181
sg5
g179
sg6
g80
sg8
VLeslie Armstrong
p182
sg10
g11
ssS'ae3e42c0-f361-43f9-a20a-775d5a24051f'
p183
(dp184
g3
S'1486871230'
p185
sg5
g183
sg6
S'KY'
p186
sg8
VBetty Adams
p187
sg10
g11
ssS'3da46963-6683-4807-8964-a6cd7fd75f7b'
p188
(dp189
g3
S'1486938530'
p190
sg5
g188
sg6
S'AR'
p191
sg8
VMatthew Torres
p192
sg10
g11
ssS'1de48e27-08b0-4ee4-a590-e28c7ea370d1'
p193
(dp194
g3
S'1486940729'
p195
sg5
g193
sg6
g65
sg8
VSonya King
p196
sg10
g11
ssS'93fb21a3-ecad-4794-8074-9795c51aa32e'
p197
(dp198
g3
S'1486926721'
p199
sg5
g197
sg6
g49
sg8
VWendy Ortiz
p200
sg10
g11
ssS'd90fb747-d203-4bad-93f4-2f90caddf34b'
p201
(dp202
g3
S'1486893770'
p203
sg5
g201
sg6
g49
sg8
VKayla Adams
p204
sg10
g11
ssS'e14b96fb-26a7-4f44-81b8-1392c2aff2bd'
p205
(dp206
g3
S'1486922510'
p207
sg5
g205
sg6
S'MO'
p208
sg8
VJustin Miller
p209
sg10
g11
ssS'ca427d63-3deb-4f3e-9e81-b45142322f0b'
p210
(dp211
g3
S'1486880041'
p212
sg5
g210
sg6
g85
sg8
VJordan Brown
p213
sg10
g11
ssS'23feb444-99b0-48ce-9c6d-65e816e64ae8'
p214
(dp215
g3
S'1486927538'
p216
sg5
g214
sg6
g70
sg8
VPeter Matthews
p217
sg10
g11
ssS'1adc9f9f-9f4c-41c7-89d7-69c3ad3424a9'
p218
(dp219
g3
S'1486921230'
p220
sg5
g218
sg6
g60
sg8
VCindy Brown
p221
sg10
g11
ssS'a19d3458-7c5e-40b7-a315-a7201a6cf870'
p222
(dp223
g3
S'1486862220'
p224
sg5
g222
sg6
g20
sg8
VJustin Burns
p225
sg10
g11
ssS'a0f555ad-6a54-4660-9ada-8fd90cd72bce'
p226
(dp227
g3
S'1486910262'
p228
sg5
g226
sg6
S'MT'
p229
sg8
VBrandon Yates Jr.
p230
sg10
g11
ssS'3900e580-40cb-4f95-ab08-6527a94eba95'
p231
(dp232
g3
S'1486889783'
p233
sg5
g231
sg6
S'WV'
p234
sg8
S'Conley-Evans'
p235
sg10
g51
ssS'8acc2b52-78d2-479a-9258-d283ac18b58a'
p236
(dp237
g3
S'1486883914'
p238
sg5
g236
sg6
S'WY'
p239
sg8
S'Lopez and Sons'
p240
sg10
g51
ssS'cc5b0e2a-1f39-4517-9b8b-b2e5751afe25'
p241
(dp242
g3
S'1486889942'
p243
sg5
g241
sg6
S'HI'
p244
sg8
VChad Moreno
p245
sg10
g11
ssS'46b2b405-d3d9-4ffc-b10b-93fe11ffd1d3'
p246
(dp247
g3
S'1486866289'
p248
sg5
g246
sg6
S'NM'
p249
sg8
VNicole Parsons
p250
sg10
g11
ssS'd05da081-2f26-4447-9260-7fa453da7e7f'
p251
(dp252
g3
S'1486879753'
p253
sg5
g251
sg6
g60
sg8
VStephen Garcia
p254
sg10
g11
ssS'fdbaca90-3e46-4b5e-a096-e15af366bb4d'
p255
(dp256
g3
S'1486866405'
p257
sg5
g255
sg6
g152
sg8
VBrian Hunter
p258
sg10
g11
ssS'52db1cd0-edd3-4b3c-8595-7893c664c69d'
p259
(dp260
g3
S'1486868844'
p261
sg5
g259
sg6
g186
sg8
VAaron Ortiz
p262
sg10
g11
ssS'a9cf9372-41c9-453b-a93e-87515417812b'
p263
(dp264
g3
S'1486901740'
p265
sg5
g263
sg6
g244
sg8
VYolanda Short
p266
sg10
g11
ssS'0a8d4e81-ab19-4e18-b393-157d6bcf2df6'
p267
(dp268
g3
S'1486938153'
p269
sg5
g267
sg6
g208
sg8
VDenise Davis
p270
sg10
g11
ssS'51aaf6c5-3d71-43e3-ae8c-f07e0192b0ed'
p271
(dp272
g3
S'1486937314'
p273
sg5
g271
sg6
g70
sg8
VKaren Boyd
p274
sg10
g11
ssS'565f2ffe-6f9e-440b-a9c9-ced1b97a8643'
p275
(dp276
g3
S'1486927296'
p277
sg5
g275
sg6
S'ID'
p278
sg8
VKyle Harris
p279
sg10
g11
ssS'acfb196d-3ceb-4312-b404-397b4cc54576'
p280
(dp281
g3
S'1486898692'
p282
sg5
g280
sg6
g35
sg8
VChristopher Robinson
p283
sg10
g11
ssS'1e1857be-7916-4b2b-9d80-867ebfbc486b'
p284
(dp285
g3
S'1486895405'
p286
sg5
g284
sg6
S'VA'
p287
sg8
VJohn Gonzalez
p288
sg10
g11
ssS'300b2b29-2d6b-4e60-8017-da9c72e339a2'
p289
(dp290
g3
S'1486929275'
p291
sg5
g289
sg6
g80
sg8
VHenry Clarke
p292
sg10
g11
ssS'129e71bb-c624-4d9e-9541-c6164a76fb91'
p293
(dp294
g3
S'1486885804'
p295
sg5
g293
sg6
S'VT'
p296
sg8
VChelsea Hall
p297
sg10
g11
ssS'03cd3446-6d9f-42f6-93cd-5b34812aeddb'
p298
(dp299
g3
S'1486880717'
p300
sg5
g298
sg6
g70
sg8
VPeter Santos
p301
sg10
g11
ssS'e2c2a638-59be-4258-b325-22d6f7b18535'
p302
(dp303
g3
S'1486877159'
p304
sg5
g302
sg6
S'NC'
p305
sg8
VCharles Carey
p306
sg10
g11
ssS'4907bc26-f408-47e2-a277-2814610f7c49'
p307
(dp308
g3
S'1486927659'
p309
sg5
g307
sg6
g287
sg8
VTiffany Parrish
p310
sg10
g11
ssS'909fa749-f39d-4958-8c3d-1675df06d4f1'
p311
(dp312
g3
S'1486916021'
p313
sg5
g311
sg6
S'OH'
p314
sg8
VMrs. Brittany Gutierrez
p315
sg10
g11
ssS'e190945c-3d94-4ea1-84dc-2114220564fb'
p316
(dp317
g3
S'1486923668'
p318
sg5
g316
sg6
g35
sg8
VTracey Holt
p319
sg10
g11
ssS'1aea1d94-c153-4ed5-9f2b-fa99967b1c5e'
p320
(dp321
g3
S'1486862590'
p322
sg5
g320
sg6
g229
sg8
VCarlos Alvarado
p323
sg10
g11
ssS'c04b35f4-ea53-456e-8fdb-b68ac5b323e4'
p324
(dp325
g3
S'1486924525'
p326
sg5
g324
sg6
S'NY'
p327
sg8
VHunter Salas
p328
sg10
g11
ssS'bd944bf1-0415-4352-9638-3a0828a02efb'
p329
(dp330
g3
S'1486863469'
p331
sg5
g329
sg6
g7
sg8
VRobert Mcconnell
p332
sg10
g11
ssS'2bfa80b5-19fe-4773-84b7-86759d0fdcae'
p333
(dp334
g3
S'1486873086'
p335
sg5
g333
sg6
g314
sg8
VJulie Baker
p336
sg10
g11
ssS'e13eb691-e914-4ffc-b4d3-0f6dea808451'
p337
(dp338
g3
S'1486911850'
p339
sg5
g337
sg6
g70
sg8
VEthan Colon
p340
sg10
g11
ssS'157459ec-a5f9-4b8a-b298-8754364a0c0a'
p341
(dp342
g3
S'1486877789'
p343
sg5
g341
sg6
S'KS'
p344
sg8
VLarry Frederick
p345
sg10
g11
ssS'63bf01ea-bd2c-43df-a9ea-29610f42ccf8'
p346
(dp347
g3
S'1486943235'
p348
sg5
g346
sg6
S'WA'
p349
sg8
VCarly Kane
p350
sg10
g11
ssS'64ee8c06-b6ec-4247-974e-fe2d7dd852d6'
p351
(dp352
g3
S'1486878882'
p353
sg5
g351
sg6
g305
sg8
VTracy Rowland
p354
sg10
g11
ssS'16595e12-1482-4710-9e52-114b2e5bd42c'
p355
(dp356
g3
S'1486875710'
p357
sg5
g355
sg6
g7
sg8
VSarah Aguirre
p358
sg10
g11
ssS'6397d52e-11b2-447d-8c55-021dea636b65'
p359
(dp360
g3
S'1486868488'
p361
sg5
g359
sg6
g7
sg8
VJason Miller
p362
sg10
g11
ssS'31211349-541c-4ca9-940a-9a2913017095'
p363
(dp364
g3
S'1486879007'
p365
sg5
g363
sg6
S'CT'
p366
sg8
VKristina Blackwell
p367
sg10
g11
ssS'b5707938-5be8-41dc-b50c-e9369e725fd6'
p368
(dp369
g3
S'1486934779'
p370
sg5
g368
sg6
g152
sg8
S'Rogers Ltd'
p371
sg10
g51
ssS'b48c5007-aed9-4f96-bc08-897ffe00b096'
p372
(dp373
g3
S'1486915940'
p374
sg5
g372
sg6
g305
sg8
VKimberly Hunter
p375
sg10
g11
ssS'9edbade0-cc80-4ecc-96b7-2a2eb8eda608'
p376
(dp377
g3
S'1486870029'
p378
sg5
g376
sg6
S'LA'
p379
sg8
VJennifer Ruiz
p380
sg10
g11
ssS'bced37d4-0424-4d77-afdd-e8523ddde881'
p381
(dp382
g3
S'1486871190'
p383
sg5
g381
sg6
g344
sg8
VMelissa Johnston
p384
sg10
g11
ssS'd307c8f2-98af-441b-9a70-728a686e736c'
p385
(dp386
g3
S'1486872449'
p387
sg5
g385
sg6
g90
sg8
VDiane Jones
p388
sg10
g11
ssS'9721dbd1-86eb-4665-8aef-c008218ae281'
p389
(dp390
g3
S'1486915652'
p391
sg5
g389
sg6
g30
sg8
VBrian Hall
p392
sg10
g11
ssS'909e3c36-18df-4b05-b28e-4ddcc117494a'
p393
(dp394
g3
S'1486874715'
p395
sg5
g393
sg6
g85
sg8
VCorey Novak
p396
sg10
g11
ssS'992ad288-5b9d-481b-9728-964c9dee9fb1'
p397
(dp398
g3
S'1486894648'
p399
sg5
g397
sg6
g366
sg8
VKristen Scott
p400
sg10
g11
ssS'd00e346a-52a8-4629-8eb3-54e77823fe6b'
p401
(dp402
g3
S'1486871291'
p403
sg5
g401
sg6
S'OR'
p404
sg8
VAmy Anderson
p405
sg10
g11
ssS'65ea741f-018a-49d1-b88c-729d8e9fab31'
p406
(dp407
g3
S'1486921118'
p408
sg5
g406
sg6
S'AL'
p409
sg8
VRhonda Watkins
p410
sg10
g11
ssS'df8b5d8d-7c99-4d69-b5af-dd80763e84c3'
p411
(dp412
g3
S'1486860784'
p413
sg5
g411
sg6
g70
sg8
VChristopher Pacheco
p414
sg10
g11
ssS'f333272b-c9ab-4a90-a752-6f5fdccc7368'
p415
(dp416
g3
S'1486902864'
p417
sg5
g415
sg6
g130
sg8
VLarry Bowers
p418
sg10
g11
ssS'2107ef27-c04d-4ae6-94cd-74044b10d9a0'
p419
(dp420
g3
S'1486935535'
p421
sg5
g419
sg6
g229
sg8
S'Thomas and Sons'
p422
sg10
g51
ssS'f1e8d68e-bd01-441f-b24d-8be716c20f9b'
p423
(dp424
g3
S'1486910999'
p425
sg5
g423
sg6
g208
sg8
VDeborah Golden
p426
sg10
g11
ssS'fdc2bf7a-1227-45e3-9b5f-6afd8b90dd14'
p427
(dp428
g3
S'1486878501'
p429
sg5
g427
sg6
S'SC'
p430
sg8
VEmily Salazar
p431
sg10
g11
ssS'f9ff7c2b-48d1-4fc2-904c-ed86e246239c'
p432
(dp433
g3
S'1486938772'
p434
sg5
g432
sg6
S'AK'
p435
sg8
VSteven Sims
p436
sg10
g11
ssS'4dff919f-dec2-496d-8265-f85c94d685f0'
p437
(dp438
g3
S'1486905613'
p439
sg5
g437
sg6
g278
sg8
VCharles Kline
p440
sg10
g11
ssS'34378389-0e6f-479f-a3f5-e65fc0e26dcd'
p441
(dp442
g3
S'1486901665'
p443
sg5
g441
sg6
g165
sg8
VJeremy Bates
p444
sg10
g11
ssS'b172a017-22c1-4a63-a211-30f7e7866c6d'
p445
(dp446
g3
S'1486860357'
p447
sg5
g445
sg6
g366
sg8
VRyan Martin
p448
sg10
g11
ssS'd72e7ed6-f2b3-4a16-89ed-2f82dd8e8ff4'
p449
(dp450
g3
S'1486908799'
p451
sg5
g449
sg6
g404
sg8
VDebra Dixon
p452
sg10
g11
ssS'c0ea09cf-e47f-4213-8ab4-ad3ac9d832bd'
p453
(dp454
g3
S'1486869621'
p455
sg5
g453
sg6
g25
sg8
VKathy Willis
p456
sg10
g11
ssS'b3fee15f-dabb-4483-abb5-0a055dad4db7'
p457
(dp458
g3
S'1486896392'
p459
sg5
g457
sg6
g60
sg8
VElizabeth Coleman
p460
sg10
g11
ssS'08d31b64-f33f-4ca1-a6a6-70e9fdc92ffd'
p461
(dp462
g3
S'1486895411'
p463
sg5
g461
sg6
g104
sg8
VLori Mccoy
p464
sg10
g11
ssS'39406708-7f25-4418-9fd1-b18d41b2a66e'
p465
(dp466
g3
S'1486885321'
p467
sg5
g465
sg6
g435
sg8
VKelli Wright
p468
sg10
g11
ssS'48145177-b7e8-468a-ba13-03c95386cd78'
p469
(dp470
g3
S'1486893313'
p471
sg5
g469
sg6
g208
sg8
VJasmine Curry
p472
sg10
g11
ssS'635fafff-d459-46c5-8e29-46dd97c4b5bd'
p473
(dp474
g3
S'1486914784'
p475
sg5
g473
sg6
g75
sg8
VMathew Stanton
p476
sg10
g11
ssS'3aa9ab21-7347-499e-a7dc-3c5625f03c9f'
p477
(dp478
g3
S'1486939100'
p479
sg5
g477
sg6
g379
sg8
VBonnie Frederick
p480
sg10
g11
ssS'a6aeca68-8aca-4e52-be4c-a8e5b5c69af2'
p481
(dp482
g3
S'1486905279'
p483
sg5
g481
sg6
g249
sg8
VFrancis Terry
p484
sg10
g11
ssS'24580add-3c39-4ec7-9fac-8341df43e831'
p485
(dp486
g3
S'1486941731'
p487
sg5
g485
sg6
g379
sg8
VLeslie Stevens
p488
sg10
g11
ssS'd3f8857a-5352-41bf-b87c-aa75376a7a8f'
p489
(dp490
g3
S'1486889461'
p491
sg5
g489
sg6
g435
sg8
S'Nguyen Group'
p492
sg10
g51
ssS'20b1faf6-657b-483a-be0b-d012b0f25ef2'
p493
(dp494
g3
S'1486872788'
p495
sg5
g493
sg6
S'NV'
p496
sg8
VMichele Diaz
p497
sg10
g11
ssS'a4e9d281-8356-42a4-8717-3c73195cfbb7'
p498
(dp499
g3
S'1486877387'
p500
sg5
g498
sg6
g165
sg8
VJames Zhang
p501
sg10
g11
ssS'ae88add6-440d-431d-9d4b-a460e13fcc77'
p502
(dp503
g3
S'1486886987'
p504
sg5
g502
sg6
g165
sg8
VJeanette Thompson
p505
sg10
g11
ssS'1160d629-4865-43af-b11c-3deddf4a6852'
p506
(dp507
g3
S'1486902314'
p508
sg5
g506
sg6
g117
sg8
VAlbert Moreno Jr.
p509
sg10
g11
ssS'95776f34-21c5-48ad-a0ba-4bfc13813509'
p510
(dp511
g3
S'1486864330'
p512
sg5
g510
sg6
S'MA'
p513
sg8
S'Moore-Martin'
p514
sg10
g51
ssS'b2fdcf6a-616e-41e3-81c2-fd69337f6870'
p515
(dp516
g3
S'1486882605'
p517
sg5
g515
sg6
g165
sg8
VJoseph Mullen
p518
sg10
g11
ssS'ae839c3c-35a4-4424-ba5d-682e5a373a4c'
p519
(dp520
g3
S'1486898810'
p521
sg5
g519
sg6
g40
sg8
VPatrick Butler
p522
sg10
g11
ssS'15296bec-1599-4de8-8368-f46f2f4c7325'
p523
(dp524
g3
S'1486934283'
p525
sg5
g523
sg6
g85
sg8
VMr. Matthew Diaz Jr.
p526
sg10
g11
ssS'a83fc5d5-8e25-4844-9480-9746fad1394b'
p527
(dp528
g3
S'1486911159'
p529
sg5
g527
sg6
S'NH'
p530
sg8
VKerri Ortega
p531
sg10
g11
ssS'a21275a1-fd16-42ad-9c42-5a7692b20772'
p532
(dp533
g3
S'1486917121'
p534
sg5
g532
sg6
g344
sg8
VCameron Martinez
p535
sg10
g11
ssS'0afddc66-7bfa-4ec0-8f4c-8ea1faceea29'
p536
(dp537
g3
S'1486939812'
p538
sg5
g536
sg6
g208
sg8
VNathan Garcia
p539
sg10
g11
ssS'814b8fc0-e845-4f4c-a9c6-e48b08f80336'
p540
(dp541
g3
S'1486887700'
p542
sg5
g540
sg6
g278
sg8
VJessica Taylor
p543
sg10
g11
ssS'c2dddb71-a62c-43d4-bbc7-e5d206b203b0'
p544
(dp545
g3
S'1486867650'
p546
sg5
g544
sg6
g366
sg8
VKrista Jones
p547
sg10
g11
ssS'd01e1963-a49d-4fb3-a0cb-dc0280a09368'
p548
(dp549
g3
S'1486904694'
p550
sg5
g548
sg6
g530
sg8
VAlison Wilson
p551
sg10
g11
ssS'4ed83f70-c9c1-4d4d-b767-2cb4fd883901'
p552
(dp553
g3
S'1486918138'
p554
sg5
g552
sg6
g70
sg8
VLisa Reed
p555
sg10
g11
ssS'3be5b7ac-3247-470e-a614-56c0648a3688'
p556
(dp557
g3
S'1486913142'
p558
sg5
g556
sg6
g379
sg8
S'Valentine Group'
p559
sg10
g51
ssS'a96e4597-cfc5-4a3b-9bc5-510bc625df15'
p560
(dp561
g3
S'1486909158'
p562
sg5
g560
sg6
g229
sg8
S'Beck-Reynolds'
p563
sg10
g51
ssS'9cbb0562-a119-4d33-b239-2d1f947b6930'
p564
(dp565
g3
S'1486917677'
p566
sg5
g564
sg6
g186
sg8
VBrianna Harris
p567
sg10
g11
ssS'bf6bc7e4-b2c7-4b7e-8070-9d975a1cf367'
p568
(dp569
g3
S'1486860031'
p570
sg5
g568
sg6
g60
sg8
VDanielle Trevino
p571
sg10
g11
ssS'0782e92c-b4a8-45b9-9992-586abb12ea1b'
p572
(dp573
g3
S'1486926301'
p574
sg5
g572
sg6
g30
sg8
VKatie Smith
p575
sg10
g11
ssS'35487b91-9903-4228-92be-495ae8904d62'
p576
(dp577
g3
S'1486911301'
p578
sg5
g576
sg6
g49
sg8
VEmily Martin
p579
sg10
g11
ssS'ec0dde0a-2c37-4a9f-804e-70ee52784fbc'
p580
(dp581
g3
S'1486936056'
p582
sg5
g580
sg6
g296
sg8
VJoseph Knight
p583
sg10
g11
ssS'4ed45baa-ae03-4bef-bcdb-9e3065783c67'
p584
(dp585
g3
S'1486877405'
p586
sg5
g584
sg6
g165
sg8
VAnthony Washington
p587
sg10
g11
ssS'a00dc3cb-7256-4787-94d6-77d5e9adb530'
p588
(dp589
g3
S'1486897274'
p590
sg5
g588
sg6
g229
sg8
VJo Boone
p591
sg10
g11
ssS'25a9181c-5159-412e-b1ab-391a219df39c'
p592
(dp593
g3
S'1486893672'
p594
sg5
g592
sg6
g379
sg8
VBruce Fernandez
p595
sg10
g11
ssS'8b8700d2-9e81-491b-aabd-70f55a243fba'
p596
(dp597
g3
S'1486909536'
p598
sg5
g596
sg6
g49
sg8
VDavid Gonzalez
p599
sg10
g11
ssS'8f4a9ceb-58a0-49aa-bd2b-7f1403cf24ad'
p600
(dp601
g3
S'1486875297'
p602
sg5
g600
sg6
g435
sg8
VJohn Sanchez
p603
sg10
g11
ssS'b1204056-c164-4875-b442-125354b73968'
p604
(dp605
g3
S'1486911506'
p606
sg5
g604
sg6
g513
sg8
VMichael Boyd
p607
sg10
g11
ssS'f952cd5e-8140-4cdf-bc98-6d46e0fd5a3f'
p608
(dp609
g3
S'1486932069'
p610
sg5
g608
sg6
S'SD'
p611
sg8
VSophia Scott
p612
sg10
g11
ssS'5bd7fea7-f009-40a0-8f40-083e12d45bd7'
p613
(dp614
g3
S'1486884445'
p615
sg5
g613
sg6
g296
sg8
VJohn Lambert
p616
sg10
g11
ssS'b6b16e06-73ee-423b-af11-5f065ddf8177'
p617
(dp618
g3
S'1486899715'
p619
sg5
g617
sg6
g287
sg8
VMichael Dixon
p620
sg10
g11
ssS'd343ef7b-cd89-4540-9d52-d0580bfac0ba'
p621
(dp622
g3
S'1486888944'
p623
sg5
g621
sg6
g344
sg8
VWilliam Beasley
p624
sg10
g11
ssS'fb2bf2a2-e08c-4c03-90fe-be42a3a13e94'
p625
(dp626
g3
S'1486896265'
p627
sg5
g625
sg6
g278
sg8
VTracy Kelly
p628
sg10
g11
ssS'62d4959f-995d-4757-8dd0-4aa055b4b651'
p629
(dp630
g3
S'1486890180'
p631
sg5
g629
sg6
g186
sg8
VCatherine Chapman
p632
sg10
g11
ssS'd39b1508-e151-4efd-9f45-180acfc3eb71'
p633
(dp634
g3
S'1486900265'
p635
sg5
g633
sg6
g25
sg8
VJackie Acosta
p636
sg10
g11
ssS'742efcbc-61d6-47b7-a6f8-7bd3aa0d88b8'
p637
(dp638
g3
S'1486920475'
p639
sg5
g637
sg6
g344
sg8
VBrandon Garcia
p640
sg10
g11
ssS'7bc0053b-e674-4897-afe5-d9668a8993fe'
p641
(dp642
g3
S'1486861939'
p643
sg5
g641
sg6
g7
sg8
VWilliam Tate
p644
sg10
g11
ssS'0334194a-f832-4d6c-83d7-6cd9b6425259'
p645
(dp646
g3
S'1486882430'
p647
sg5
g645
sg6
g20
sg8
VJessica Thompson
p648
sg10
g11
ssS'ea9cacca-a063-445f-81f5-f168cc958959'
p649
(dp650
g3
S'1486863426'
p651
sg5
g649
sg6
g366
sg8
VMrs. Erica Smith DDS
p652
sg10
g11
ssS'189f579e-7093-4428-b0b0-d4b7484d4952'
p653
(dp654
g3
S'1486908202'
p655
sg5
g653
sg6
g366
sg8
VDerrick Johnson
p656
sg10
g11
ssS'04336efd-71ff-4c43-89b0-e89032bbb778'
p657
(dp658
g3
S'1486934510'
p659
sg5
g657
sg6
g7
sg8
VMegan Butler
p660
sg10
g11
ssS'739b495b-71c9-439b-8609-b2a200317214'
p661
(dp662
g3
S'1486920080'
p663
sg5
g661
sg6
g135
sg8
VScott Morton
p664
sg10
g11
ssS'266842c6-801f-4653-9978-718a0e4aa6dc'
p665
(dp666
g3
S'1486870474'
p667
sg5
g665
sg6
g229
sg8
VLance Ortiz
p668
sg10
g11
ssS'd0b409b7-ce6b-432e-8b62-e7ce7dba5f2c'
p669
(dp670
g3
S'1486908385'
p671
sg5
g669
sg6
g75
sg8
VDavid Garcia DDS
p672
sg10
g11
ssS'0d266a42-bfee-4020-a8c1-88c894faf70f'
p673
(dp674
g3
S'1486916249'
p675
sg5
g673
sg6
g49
sg8
VJason Knapp
p676
sg10
g11
ssS'305cbf77-d3ff-4433-9d7c-62372e5c25d6'
p677
(dp678
g3
S'1486902769'
p679
sg5
g677
sg6
g186
sg8
VJessica Bailey
p680
sg10
g11
ssS'339d7796-2fc8-4f35-bda7-7501bbfa39c6'
p681
(dp682
g3
S'1486924788'
p683
sg5
g681
sg6
g65
sg8
VChristopher Guzman
p684
sg10
g11
ssS'b2524b24-c7be-43ff-a27d-1756657af99c'
p685
(dp686
g3
S'1486940277'
p687
sg5
g685
sg6
g104
sg8
VMark Knapp
p688
sg10
g11
ssS'892a2254-8468-49ad-9b42-29cab2580a9e'
p689
(dp690
g3
S'1486917963'
p691
sg5
g689
sg6
g234
sg8
VVirginia Ellis
p692
sg10
g11
ssS'ffd665d5-a5be-4e11-b17e-bb155ce29a68'
p693
(dp694
g3
S'1486886712'
p695
sg5
g693
sg6
g20
sg8
VJean Branch
p696
sg10
g11
ssS'172ffd65-c5d4-4119-9c02-5db2adc7e917'
p697
(dp698
g3
S'1486883552'
p699
sg5
g697
sg6
g404
sg8
VRodney Bauer
p700
sg10
g11
ssS'1879a474-01f8-4254-8981-94836db3f005'
p701
(dp702
g3
S'1486937884'
p703
sg5
g701
sg6
g278
sg8
VAlexander Ortiz
p704
sg10
g11
ssS'e69cec26-c9ad-4535-944c-b6b7398fd15b'
p705
(dp706
g3
S'1486920805'
p707
sg5
g705
sg6
g344
sg8
VDavid Shaw
p708
sg10
g11
ssS'87d445fe-8cc9-4140-b968-8681da573c3d'
p709
(dp710
g3
S'1486938686'
p711
sg5
g709
sg6
g15
sg8
VSamuel Ponce
p712
sg10
g11
ssS'6c65a13a-46e5-4b7f-8592-226ec974056a'
p713
(dp714
g3
S'1486944275'
p715
sg5
g713
sg6
g70
sg8
VJames Parker
p716
sg10
g11
ssS'd2cc3436-6fe0-4f92-96fd-1499922a4bcb'
p717
(dp718
g3
S'1486882076'
p719
sg5
g717
sg6
g80
sg8
VEmily Mitchell
p720
sg10
g11
ssS'f864ae8b-6950-4200-ab72-17d940c60bef'
p721
(dp722
g3
S'1486869017'
p723
sg5
g721
sg6
g65
sg8
VHeather Rasmussen
p724
sg10
g11
ssS'e392baf2-b503-4496-96b5-12fa2e03687d'
p725
(dp726
g3
S'1486870774'
p727
sg5
g725
sg6
g90
sg8
VJoshua Stewart
p728
sg10
g11
ssS'feff04fb-dba5-41f2-8af7-ac0b33f8c4cf'
p729
(dp730
g3
S'1486865568'
p731
sg5
g729
sg6
g130
sg8
VMark Jordan
p732
sg10
g11
ssS'517b21de-76ad-4411-b89a-36a225c0bcc3'
p733
(dp734
g3
S'1486944280'
p735
sg5
g733
sg6
g90
sg8
VStephanie Evans
p736
sg10
g11
ssS'0be36018-bced-4dd4-a18c-a5b59f684292'
p737
(dp738
g3
S'1486942260'
p739
sg5
g737
sg6
g344
sg8
VBenjamin Daniel
p740
sg10
g11
ssS'12cd3b19-6e10-4af6-8f49-2100057d0df4'
p741
(dp742
g3
S'1486944509'
p743
sg5
g741
sg6
S'MI'
p744
sg8
S'Webb-Marshall'
p745
sg10
g51
ssS'8fe301b5-eaab-4e9d-9d8e-28725936ddb2'
p746
(dp747
g3
S'1486867180'
p748
sg5
g746
sg6
S'TX'
p749
sg8
VGina Torres
p750
sg10
g11
ssS'db842203-e956-440c-8719-c945838b9f18'
p751
(dp752
g3
S'1486929789'
p753
sg5
g751
sg6
g20
sg8
VAmy Bates
p754
sg10
g11
ssS'ffac9139-f52b-485e-b175-38fd0f9f5936'
p755
(dp756
g3
S'1486903363'
p757
sg5
g755
sg6
g749
sg8
VDaniel Myers
p758
sg10
g11
ssS'8bbdfd64-5b89-487a-aa36-ba26093ea493'
p759
(dp760
g3
S'1486915396'
p761
sg5
g759
sg6
g435
sg8
VJoseph Sullivan
p762
sg10
g11
ssS'6472c9a3-fe99-44b1-8785-39cabaa9cd95'
p763
(dp764
g3
S'1486900647'
p765
sg5
g763
sg6
g409
sg8
VJennifer Scott
p766
sg10
g11
ssS'38d5f16d-ef83-4cd1-a7e6-83d4023fc149'
p767
(dp768
g3
S'1486902881'
p769
sg5
g767
sg6
g239
sg8
VSteven Morton
p770
sg10
g11
ssS'2ef90339-28c5-4406-b7e2-b6bccc2a6f66'
p771
(dp772
g3
S'1486941299'
p773
sg5
g771
sg6
g278
sg8
VGregory Peterson
p774
sg10
g11
ssS'd11590d0-d1bb-4143-aad5-35eedbf52b07'
p775
(dp776
g3
S'1486863251'
p777
sg5
g775
sg6
g409
sg8
VKim Mckinney
p778
sg10
g11
ssS'91e3c17f-1aed-42d4-894d-efa2315ca0c4'
p779
(dp780
g3
S'1486914002'
p781
sg5
g779
sg6
g40
sg8
S'Bailey-Russo'
p782
sg10
g51
ssS'ba2513bc-ff42-406c-aed0-ca8ef0599e8e'
p783
(dp784
g3
S'1486931737'
p785
sg5
g783
sg6
g104
sg8
VLeroy Morales
p786
sg10
g11
ssS'49cec7dc-20b8-4b12-902e-713670d3619e'
p787
(dp788
g3
S'1486880640'
p789
sg5
g787
sg6
g49
sg8
VMichelle Villarreal
p790
sg10
g11
ssS'7fbad38a-6c56-42fd-ae3f-acb34d34bb92'
p791
(dp792
g3
S'1486877391'
p793
sg5
g791
sg6
g513
sg8
S'Martinez-Zuniga'
p794
sg10
g51
ssS'1d10e96d-3f2d-4dd6-9708-d29617a7e7c8'
p795
(dp796
g3
S'1486870384'
p797
sg5
g795
sg6
g30
sg8
VDavid Walker
p798
sg10
g11
ssS'6ce39e76-6ea9-4c11-85cd-90363635e9dd'
p799
(dp800
g3
S'1486907742'
p801
sg5
g799
sg6
g278
sg8
VRobert Ryan
p802
sg10
g11
ssS'f55e5018-a2f1-40f3-953d-999a273db0fb'
p803
(dp804
g3
S'1486922204'
p805
sg5
g803
sg6
g35
sg8
VGwendolyn Brown
p806
sg10
g11
ssS'5e4938af-d3c3-454a-aecf-9eff7b4a7159'
p807
(dp808
g3
S'1486919596'
p809
sg5
g807
sg6
g35
sg8
VAndre Woodward
p810
sg10
g11
ssS'9fc121ba-ff67-464c-8185-553966d1ab90'
p811
(dp812
g3
S'1486917359'
p813
sg5
g811
sg6
g186
sg8
VDaniel Fisher
p814
sg10
g11
ssS'7f057145-e61e-41a8-a9e3-055d2b293b2f'
p815
(dp816
g3
S'1486860055'
p817
sg5
g815
sg6
g191
sg8
VStephen Garrett
p818
sg10
g11
ssS'fb9a586f-73fd-4485-9fea-6675d492ef4d'
p819
(dp820
g3
S'1486890424'
p821
sg5
g819
sg6
g15
sg8
VMargaret Smith
p822
sg10
g11
ssS'436a3977-6b25-43ec-b837-51215bb5b15c'
p823
(dp824
g3
S'1486878012'
p825
sg5
g823
sg6
g327
sg8
VChad Walker
p826
sg10
g11
ssS'65fb0e18-cf32-4d25-a93f-cae0362195b6'
p827
(dp828
g3
S'1486912304'
p829
sg5
g827
sg6
g379
sg8
VAngela Williams
p830
sg10
g11
ssS'79c7d0e9-835b-434a-bbcb-827eab62fb24'
p831
(dp832
g3
S'1486859666'
p833
sg5
g831
sg6
g530
sg8
VAriel Williams
p834
sg10
g11
ssS'0146aabf-475b-4a35-9372-94f87b511522'
p835
(dp836
g3
S'1486918345'
p837
sg5
g835
sg6
g749
sg8
VJesse Benton
p838
sg10
g11
ssS'6169b046-ecef-4538-ab6a-4d625cb17390'
p839
(dp840
g3
S'1486888323'
p841
sg5
g839
sg6
g99
sg8
VJoanna Brown
p842
sg10
g11
ssS'8e7da83a-3460-4458-a2eb-b3e57ab28313'
p843
(dp844
g3
S'1486907668'
p845
sg5
g843
sg6
g60
sg8
VKimberly Rhodes
p846
sg10
g11
ssS'320f1d09-f580-4677-a7e3-7904dbc0ee41'
p847
(dp848
g3
S'1486912616'
p849
sg5
g847
sg6
g296
sg8
VKendra Maxwell
p850
sg10
g11
ssS'40b40c52-a884-4beb-a7bb-e703dd0ec572'
p851
(dp852
g3
S'1486913808'
p853
sg5
g851
sg6
g249
sg8
VChristian Williams
p854
sg10
g11
ssS'adb4e4b2-de8f-4ddc-b1ca-778b81a1f83c'
p855
(dp856
g3
S'1486884069'
p857
sg5
g855
sg6
g611
sg8
VRichard Lawrence
p858
sg10
g11
ssS'bb2e0688-c1a7-4bed-97b7-328eb7d64760'
p859
(dp860
g3
S'1486913695'
p861
sg5
g859
sg6
g191
sg8
VMadison Mason
p862
sg10
g11
ssS'10c06ac0-1a3a-4a7f-b4a9-610c21c12b21'
p863
(dp864
g3
S'1486877596'
p865
sg5
g863
sg6
g117
sg8
VChad Ellis
p866
sg10
g11
ssS'2ca87b8c-618f-4ebd-b679-dc7492e48016'
p867
(dp868
g3
S'1486919777'
p869
sg5
g867
sg6
g186
sg8
VMaria Hawkins
p870
sg10
g11
ssS'5963365c-bc48-424a-a3c2-131519b76271'
p871
(dp872
g3
S'1486874177'
p873
sg5
g871
sg6
g15
sg8
VMadison Thompson
p874
sg10
g11
ssS'595260c6-24a2-4d4f-9ae0-53ce50d868a5'
p875
(dp876
g3
S'1486940587'
p877
sg5
g875
sg6
g152
sg8
VZachary Garcia
p878
sg10
g11
ssS'a0459b70-b892-44ad-9198-412d4476f9a0'
p879
(dp880
g3
S'1486913731'
p881
sg5
g879
sg6
g70
sg8
VJill Carlson
p882
sg10
g11
ssS'569b9f4e-1084-417b-b88a-f73a259be989'
p883
(dp884
g3
S'1486926190'
p885
sg5
g883
sg6
g99
sg8
VTyler Howard
p886
sg10
g11
ssS'0afa58c0-438e-443a-b869-65802358f38c'
p887
(dp888
g3
S'1486913451'
p889
sg5
g887
sg6
g239
sg8
VSandra Hess
p890
sg10
g11
ssS'477c2e6d-188d-4c60-aff0-53607d29cffc'
p891
(dp892
g3
S'1486942849'
p893
sg5
g891
sg6
g314
sg8
VShannon Roberts
p894
sg10
g11
ssS'05d6a891-bbe8-467d-aaa9-78d60d79518a'
p895
(dp896
g3
S'1486932659'
p897
sg5
g895
sg6
g65
sg8
VChristopher Carter
p898
sg10
g11
ssS'35892aab-fa06-40f2-b5ed-f6d4bd172bc8'
p899
(dp900
g3
S'1486879651'
p901
sg5
g899
sg6
g404
sg8
VApril Campbell
p902
sg10
g11
ssS'cd59eb49-0976-4dda-8c9a-83f1a2e460c8'
p903
(dp904
g3
S'1486914730'
p905
sg5
g903
sg6
g749
sg8
VChristopher Hines
p906
sg10
g11
ssS'8c4c1ff0-e198-4d11-9bb7-088273069ecd'
p907
(dp908
g3
S'1486881858'
p909
sg5
g907
sg6
g104
sg8
VTiffany Hammond
p910
sg10
g11
ssS'6c0060e8-1d81-4e84-b853-89711b7e5572'
p911
(dp912
g3
S'1486914380'
p913
sg5
g911
sg6
g165
sg8
VJessica Williams
p914
sg10
g11
ssS'9a75e90a-223b-46f6-a939-0bf080d900a1'
p915
(dp916
g3
S'1486938496'
p917
sg5
g915
sg6
g366
sg8
VHeather Armstrong
p918
sg10
g11
ssS'6c442918-36ce-41ca-87f2-91591968fa0c'
p919
(dp920
g3
S'1486859266'
p921
sg5
g919
sg6
g152
sg8
VJames Smith
p922
sg10
g11
ssS'34b9e9bd-26b2-4ec3-a8fe-8dddedc07264'
p923
(dp924
g3
S'1486895444'
p925
sg5
g923
sg6
g611
sg8
VTammie Collins
p926
sg10
g11
ssS'90511068-68aa-4e62-92d5-f82f056c965a'
p927
(dp928
g3
S'1486932463'
p929
sg5
g927
sg6
g314
sg8
VMark Martin
p930
sg10
g11
ssS'75c3ddf7-3d9c-4025-8897-4a2cc2ae6453'
p931
(dp932
g3
S'1486931171'
p933
sg5
g931
sg6
g15
sg8
VSamuel Strickland
p934
sg10
g11
ssS'001eb4ca-91ff-44c1-b991-e9efd8945dcc'
p935
(dp936
g3
S'1486875468'
p937
sg5
g935
sg6
g344
sg8
VAngela Lambert
p938
sg10
g11
ssS'17a3c09d-2703-4b56-9547-5e5917a18b7e'
p939
(dp940
g3
S'1486859552'
p941
sg5
g939
sg6
g135
sg8
VJames Mcintosh
p942
sg10
g11
ssS'd1c02551-1379-4f62-99ee-09c895d9fdc6'
p943
(dp944
g3
S'1486885957'
p945
sg5
g943
sg6
g530
sg8
VClayton Gonzalez
p946
sg10
g11
ssS'f86cd5da-d7b4-43e1-a175-b76110b20db8'
p947
(dp948
g3
S'1486862501'
p949
sg5
g947
sg6
g191
sg8
VSydney Garcia
p950
sg10
g11
ssS'e7de4a33-f700-4274-8596-eb3ec7f3f794'
p951
(dp952
g3
S'1486872448'
p953
sg5
g951
sg6
g208
sg8
VDeborah Short
p954
sg10
g11
ssS'08cba6c8-2920-46a7-b3d6-4c39b97571f4'
p955
(dp956
g3
S'1486896835'
p957
sg5
g955
sg6
g165
sg8
VWesley Wright
p958
sg10
g11
ssS'b4068bbd-c879-474b-a234-ff9d65dbd57d'
p959
(dp960
g3
S'1486895703'
p961
sg5
g959
sg6
g208
sg8
VClaire Hunter
p962
sg10
g11
ssS'd617d04f-92f7-4dc5-8197-8d2a16b084bd'
p963
(dp964
g3
S'1486900719'
p965
sg5
g963
sg6
g186
sg8
VAmanda Peters
p966
sg10
g11
ssS'47f86a0e-5988-484b-a141-c64730eb1304'
p967
(dp968
g3
S'1486909183'
p969
sg5
g967
sg6
g40
sg8
VChelsea Wade
p970
sg10
g11
ssS'6133528b-df32-4dc3-a1ae-e6a445b5a0ed'
p971
(dp972
g3
S'1486908498'
p973
sg5
g971
sg6
g409
sg8
VBrittany Stewart
p974
sg10
g11
ssS'3842e314-8f84-4bce-9e89-7ea9b51a7f05'
p975
(dp976
g3
S'1486859244'
p977
sg5
g975
sg6
g152
sg8
VKaren Campbell
p978
sg10
g11
ssS'6bbc2335-ff50-468a-a2b3-18dbe2fd1dc4'
p979
(dp980
g3
S'1486873458'
p981
sg5
g979
sg6
g305
sg8
VCatherine Johnson
p982
sg10
g11
ssS'd88ca6f5-c567-4172-9ad8-2fdf4e94d6ed'
p983
(dp984
g3
S'1486935209'
p985
sg5
g983
sg6
g327
sg8
VJason Ortiz
p986
sg10
g11
ssS'67c6e817-4f39-44a6-b60b-4b1f8d9e4e9b'
p987
(dp988
g3
S'1486876747'
p989
sg5
g987
sg6
g249
sg8
VJonathan Martin
p990
sg10
g11
ssS'2b505575-6cc8-4e43-bc23-2c5f8468f317'
p991
(dp992
g3
S'1486898658'
p993
sg5
g991
sg6
g344
sg8
VAlice Johnson
p994
sg10
g11
ssS'202e409b-1208-42c9-9a7a-d70b6d46aa41'
p995
(dp996
g3
S'1486920444'
p997
sg5
g995
sg6
g117
sg8
VDanielle Strickland DDS
p998
sg10
g11
ssS'ad241233-776a-481b-acca-c9c9bc48a33f'
p999
(dp1000
g3
S'1486914299'
p1001
sg5
g999
sg6
g104
sg8
VBarbara Hogan
p1002
sg10
g11
ssS'6f8464a7-a52d-4525-9621-a13f749351e3'
p1003
(dp1004
g3
S'1486927123'
p1005
sg5
g1003
sg6
g40
sg8
VMary Thomas
p1006
sg10
g11
ssS'f4ff5ff8-2fe4-4c58-bcbe-40b8c54943b1'
p1007
(dp1008
g3
S'1486900253'
p1009
sg5
g1007
sg6
g296
sg8
VEmily Sandoval
p1010
sg10
g11
ssS'34f1897f-4ea3-4ae0-a04b-8ca4d631c195'
p1011
(dp1012
g3
S'1486863089'
p1013
sg5
g1011
sg6
g344
sg8
VAnthony Ramsey
p1014
sg10
g11
ssS'5ac8c456-8ee0-49c1-9859-43d46a68edaf'
p1015
(dp1016
g3
S'1486938257'
p1017
sg5
g1015
sg6
g379
sg8
S'Ross Group'
p1018
sg10
g51
ssS'305f8561-1920-466b-995c-d596d26d13bc'
p1019
(dp1020
g3
S'1486912124'
p1021
sg5
g1019
sg6
g152
sg8
VApril Norris
p1022
sg10
g11
ssS'95ad4b90-fcf7-4ffa-a8f2-75a9bd1b5d87'
p1023
(dp1024
g3
S'1486871861'
p1025
sg5
g1023
sg6
g244
sg8
VJohn Stewart
p1026
sg10
g11
ssS'a309384c-52c9-4aaf-a9b0-537e85493b31'
p1027
(dp1028
g3
S'1486884150'
p1029
sg5
g1027
sg6
g379
sg8
S'Ray-Peterson'
p1030
sg10
g51
ssS'0a5bcac6-a3bb-49af-b533-3002c8b1aa61'
p1031
(dp1032
g3
S'1486938788'
p1033
sg5
g1031
sg6
g379
sg8
VWilliam Bond
p1034
sg10
g11
ssS'4bf10312-92a5-4601-a00f-4ac5872199ca'
p1035
(dp1036
g3
S'1486865977'
p1037
sg5
g1035
sg6
g117
sg8
VRobert Brown
p1038
sg10
g11
ssS'a933d069-2e8f-43de-939f-10191c7e2781'
p1039
(dp1040
g3
S'1486866243'
p1041
sg5
g1039
sg6
g208
sg8
VTara Meyer
p1042
sg10
g11
ssS'585459ef-3eb4-46a1-9b78-a4a7ca9ca01a'
p1043
(dp1044
g3
S'1486931924'
p1045
sg5
g1043
sg6
g314
sg8
VKatrina Campbell
p1046
sg10
g11
ssS'3d09c170-0bc5-4710-86f0-4bc878616969'
p1047
(dp1048
g3
S'1486906116'
p1049
sg5
g1047
sg6
g186
sg8
VDr. Kathy Collins
p1050
sg10
g11
ssS'e8cf4504-ac01-4712-9cf7-fae2edd7e00a'
p1051
(dp1052
g3
S'1486930535'
p1053
sg5
g1051
sg6
g104
sg8
VAmanda Oneill
p1054
sg10
g11
ssS'f84b2ec5-76ca-4ad0-a446-01ed3ff39d2a'
p1055
(dp1056
g3
S'1486891595'
p1057
sg5
g1055
sg6
g249
sg8
VStephanie Mooney
p1058
sg10
g11
ssS'934ad4d6-700d-493d-bdb5-c109da1b76df'
p1059
(dp1060
g3
S'1486900387'
p1061
sg5
g1059
sg6
g305
sg8
VAlan Padilla
p1062
sg10
g11
ssS'db717ba9-bf18-4fd6-a7a5-6db8dc2a500b'
p1063
(dp1064
g3
S'1486873344'
p1065
sg5
g1063
sg6
g744
sg8
VGeorge Shaffer
p1066
sg10
g11
ssS'e45cf6fa-6d43-411d-b40b-e50d83c305dd'
p1067
(dp1068
g3
S'1486892055'
p1069
sg5
g1067
sg6
g496
sg8
VShawn Hinton
p1070
sg10
g11
ssS'7893ba36-17c2-41bd-a2b3-06f1ba192adf'
p1071
(dp1072
g3
S'1486883572'
p1073
sg5
g1071
sg6
g513
sg8
VDaniel Fitzgerald
p1074
sg10
g11
ssS'f05c8745-f3b9-4d2d-bb6e-2b39ea5b0473'
p1075
(dp1076
g3
S'1486917184'
p1077
sg5
g1075
sg6
g60
sg8
VRaymond Chang
p1078
sg10
g11
ssS'3d942795-394d-4f06-8d49-18d2a09f2fc7'
p1079
(dp1080
g3
S'1486890609'
p1081
sg5
g1079
sg6
g117
sg8
VRyan Fernandez
p1082
sg10
g11
ssS'c0d28ca4-4fa0-4edc-b611-621adc24f494'
p1083
(dp1084
g3
S'1486904341'
p1085
sg5
g1083
sg6
g278
sg8
VJoseph Zuniga
p1086
sg10
g11
ssS'899f6195-f48d-47f2-9840-ee70d7c91033'
p1087
(dp1088
g3
S'1486910044'
p1089
sg5
g1087
sg6
g35
sg8
VKimberly Holt
p1090
sg10
g11
ssS'c1019c28-adf1-4bab-aa10-caf855c873dc'
p1091
(dp1092
g3
S'1486944225'
p1093
sg5
g1091
sg6
g611
sg8
VLoretta Griffin
p1094
sg10
g11
ssS'b0e9dc95-9670-49d3-9b1d-70d1e342e9f0'
p1095
(dp1096
g3
S'1486885114'
p1097
sg5
g1095
sg6
g379
sg8
VChase Carter
p1098
sg10
g11
ssS'f543d4fd-18a8-4849-8c34-8ddf13c36ed2'
p1099
(dp1100
g3
S'1486907057'
p1101
sg5
g1099
sg6
g90
sg8
VAndrew Cooper MD
p1102
sg10
g11
ssS'9be39135-236d-45e9-a458-bc79fcbc62e2'
p1103
(dp1104
g3
S'1486939483'
p1105
sg5
g1103
sg6
g80
sg8
VJeffrey Stephens
p1106
sg10
g11
ssS'21422037-3029-4bc2-a35d-46387cbbea8b'
p1107
(dp1108
g3
S'1486910272'
p1109
sg5
g1107
sg6
g404
sg8
VDaniel Mitchell
p1110
sg10
g11
ssS'54a332d1-61f2-4875-9d20-499100df43bc'
p1111
(dp1112
g3
S'1486943267'
p1113
sg5
g1111
sg6
g65
sg8
VMichael Marshall
p1114
sg10
g11
ssS'17a931de-24f6-49f1-bfb6-c7089c9fca9a'
p1115
(dp1116
g3
S'1486895408'
p1117
sg5
g1115
sg6
g366
sg8
VRebecca Ruiz
p1118
sg10
g11
ssS'f2765994-3a64-42fa-93b6-a43740fd3718'
p1119
(dp1120
g3
S'1486925967'
p1121
sg5
g1119
sg6
g296
sg8
VGrant Freeman
p1122
sg10
g11
ssS'aa7cf4e9-5fba-49ad-884f-3da1ec79ac8d'
p1123
(dp1124
g3
S'1486917955'
p1125
sg5
g1123
sg6
g117
sg8
VWilliam Hall
p1126
sg10
g11
ssS'01d3a967-43f5-4428-b570-c120f2a8b079'
p1127
(dp1128
g3
S'1486925281'
p1129
sg5
g1127
sg6
g327
sg8
VChad Moore
p1130
sg10
g11
ssS'a2e1bdf2-e3ab-47ca-808a-cec5faee4d8c'
p1131
(dp1132
g3
S'1486876929'
p1133
sg5
g1131
sg6
g191
sg8
VJerome Myers
p1134
sg10
g11
ssS'8f1d5808-8085-4b74-ae46-a8f5b888a48f'
p1135
(dp1136
g3
S'1486921132'
p1137
sg5
g1135
sg6
g305
sg8
VDiana Davis
p1138
sg10
g11
ssS'08fa3fe0-91de-4a5e-a185-52fb3ce3699d'
p1139
(dp1140
g3
S'1486937019'
p1141
sg5
g1139
sg6
g366
sg8
VAllison Smith
p1142
sg10
g11
ssS'cd96b92f-9319-4c86-b805-8ec12c4d502f'
p1143
(dp1144
g3
S'1486897508'
p1145
sg5
g1143
sg6
g75
sg8
VRachel Richardson
p1146
sg10
g11
ssS'9d2df79d-e761-405c-95aa-f23e780b8c9b'
p1147
(dp1148
g3
S'1486873232'
p1149
sg5
g1147
sg6
g49
sg8
VNancy Ramirez
p1150
sg10
g11
ssS'7e47cfaf-9f33-4fe3-80df-950247e4cc2a'
p1151
(dp1152
g3
S'1486941118'
p1153
sg5
g1151
sg6
g20
sg8
VNancy Gonzales
p1154
sg10
g11
ssS'85fb21be-9b20-474c-aa01-846d14e33e7c'
p1155
(dp1156
g3
S'1486925933'
p1157
sg5
g1155
sg6
g90
sg8
VKathleen Dennis
p1158
sg10
g11
ssS'32c1edfd-7bef-4e39-abd2-4c8c5a3207cf'
p1159
(dp1160
g3
S'1486938653'
p1161
sg5
g1159
sg6
g85
sg8
VJared Smith
p1162
sg10
g11
ssS'00175f64-1f6c-4b25-9696-841224df596a'
p1163
(dp1164
g3
S'1486910036'
p1165
sg5
g1163
sg6
g60
sg8
VChristy Cooper
p1166
sg10
g11
ssS'792d3413-f43c-4916-b824-d223ff51c46b'
p1167
(dp1168
g3
S'1486868692'
p1169
sg5
g1167
sg6
g85
sg8
VChristine Smith
p1170
sg10
g11
ssS'2387eb61-cc95-4f41-911a-685c50aa9428'
p1171
(dp1172
g3
S'1486879037'
p1173
sg5
g1171
sg6
g287
sg8
VGary Copeland
p1174
sg10
g11
ssS'7f9a38ce-2005-4d09-8e77-a507179633c1'
p1175
(dp1176
g3
S'1486904989'
p1177
sg5
g1175
sg6
g135
sg8
VKenneth White
p1178
sg10
g11
ssS'22ef875a-dd2a-46c8-b385-55bc9c36c71e'
p1179
(dp1180
g3
S'1486863475'
p1181
sg5
g1179
sg6
g90
sg8
VJason Lopez
p1182
sg10
g11
ssS'47363e6a-520d-4897-8b76-52c5d84e56ab'
p1183
(dp1184
g3
S'1486894608'
p1185
sg5
g1183
sg6
g40
sg8
VRachel Martin
p1186
sg10
g11
ssS'f0b26e29-9d05-41e6-8de7-d7865281036e'
p1187
(dp1188
g3
S'1486873062'
p1189
sg5
g1187
sg6
g278
sg8
VBreanna Peters
p1190
sg10
g11
ssS'1b25852b-61de-4022-8905-34c91ce1bc44'
p1191
(dp1192
g3
S'1486904204'
p1193
sg5
g1191
sg6
g349
sg8
VMichelle Blake
p1194
sg10
g11
ssS'0bcce43f-c5ca-4a68-94bb-19bfdfe9e119'
p1195
(dp1196
g3
S'1486861187'
p1197
sg5
g1195
sg6
g130
sg8
VThomas Moody
p1198
sg10
g11
ssS'b9a004dc-3064-48c6-9e6a-0e7ae08bb9ba'
p1199
(dp1200
g3
S'1486881692'
p1201
sg5
g1199
sg6
g208
sg8
VDaniel Sosa
p1202
sg10
g11
ssS'cee2a096-35b4-4028-b4e0-cdf58fb60bcd'
p1203
(dp1204
g3
S'1486943023'
p1205
sg5
g1203
sg6
g208
sg8
VRyan King
p1206
sg10
g11
ssS'b501678f-a77f-42ad-9161-aa8489c74601'
p1207
(dp1208
g3
S'1486873376'
p1209
sg5
g1207
sg6
g296
sg8
VPhilip Hall
p1210
sg10
g11
ssS'6e97954c-a643-430f-913b-109fbca56e9a'
p1211
(dp1212
g3
S'1486871488'
p1213
sg5
g1211
sg6
g70
sg8
VLaura Rivera
p1214
sg10
g11
ssS'6d304364-a4d7-41da-9c65-626fe1a00a3e'
p1215
(dp1216
g3
S'1486943908'
p1217
sg5
g1215
sg6
g55
sg8
S'Jackson Group'
p1218
sg10
g51
ssS'6c89c1f4-cec3-49f7-9713-72243420fc74'
p1219
(dp1220
g3
S'1486875910'
p1221
sg5
g1219
sg6
g278
sg8
VRandall Martin
p1222
sg10
g11
ssS'72f575ac-a69a-4bbc-96f6-8c75bcb2d083'
p1223
(dp1224
g3
S'1486927147'
p1225
sg5
g1223
sg6
g191
sg8
VJoshua Hicks
p1226
sg10
g11
ssS'5f9b90fe-3016-47c4-8510-e343a3e8b58a'
p1227
(dp1228
g3
S'1486939829'
p1229
sg5
g1227
sg6
g611
sg8
VKimberly Carr
p1230
sg10
g11
ssS'45bf00a8-b156-403b-b3d6-cba1e6634655'
p1231
(dp1232
g3
S'1486874208'
p1233
sg5
g1231
sg6
g349
sg8
VMelanie Walls
p1234
sg10
g11
ssS'fdfcd46c-9674-4305-98af-a9e9f191cbc4'
p1235
(dp1236
g3
S'1486897681'
p1237
sg5
g1235
sg6
g20
sg8
VDavid Ramirez
p1238
sg10
g11
ssS'2d7352a0-9f91-4b71-b6a9-a2796a2cbf0d'
p1239
(dp1240
g3
S'1486926890'
p1241
sg5
g1239
sg6
g99
sg8
VRichard Frank
p1242
sg10
g11
ssS'a8b3f41b-ee26-4185-8ca9-1fff146c1af6'
p1243
(dp1244
g3
S'1486863323'
p1245
sg5
g1243
sg6
g278
sg8
VRyan Molina
p1246
sg10
g11
ssS'647fca6d-46d8-4d96-b71f-b5288f9ad2f3'
p1247
(dp1248
g3
S'1486862843'
p1249
sg5
g1247
sg6
g30
sg8
VJoseph Griffin
p1250
sg10
g11
ssS'244d5c9c-271a-4b46-9048-90e0fcbb7d38'
p1251
(dp1252
g3
S'1486921566'
p1253
sg5
g1251
sg6
g409
sg8
VMrs. Dana Pena
p1254
sg10
g11
ssS'b880bdb6-0c53-429a-95bb-638859190566'
p1255
(dp1256
g3
S'1486906269'
p1257
sg5
g1255
sg6
g278
sg8
VMelissa Fernandez
p1258
sg10
g11
ssS'10b0a636-c9b5-48ed-8a0e-92494af6c48e'
p1259
(dp1260
g3
S'1486907853'
p1261
sg5
g1259
sg6
g208
sg8
VSamantha White
p1262
sg10
g11
ssS'3133e62e-2af9-487d-bd7a-4992cd9e1ea0'
p1263
(dp1264
g3
S'1486931375'
p1265
sg5
g1263
sg6
g530
sg8
VPatricia Wood
p1266
sg10
g11
ssS'f192fd95-02ff-4fa4-a0aa-25c0f6d3f87a'
p1267
(dp1268
g3
S'1486897908'
p1269
sg5
g1267
sg6
g296
sg8
VDebbie Mooney
p1270
sg10
g11
ssS'e5b71d86-7848-48ec-ae8a-0fa899f3556c'
p1271
(dp1272
g3
S'1486882134'
p1273
sg5
g1271
sg6
g229
sg8
VElizabeth Leonard
p1274
sg10
g11
ssS'2967ea99-6d48-44de-a724-cd2f630f7568'
p1275
(dp1276
g3
S'1486912809'
p1277
sg5
g1275
sg6
g278
sg8
S'Mason Carpenter and Gonzalez'
p1278
sg10
g51
ssS'fc9e8f75-8d7b-45b7-b608-28ba3f2b71ed'
p1279
(dp1280
g3
S'1486868874'
p1281
sg5
g1279
sg6
g349
sg8
VEric Solomon
p1282
sg10
g11
ssS'bf1b34c8-6fe0-4675-becf-5fca9ce780e3'
p1283
(dp1284
g3
S'1486902930'
p1285
sg5
g1283
sg6
g20
sg8
VRodney Murray
p1286
sg10
g11
ssS'aa70ca96-fb59-4c60-9efe-f34acf762ff8'
p1287
(dp1288
g3
S'1486881446'
p1289
sg5
g1287
sg6
g90
sg8
VSuzanne Frost
p1290
sg10
g11
ssS'fd36a3ab-2af8-4cca-bcfe-86eea8cbe2f0'
p1291
(dp1292
g3
S'1486880407'
p1293
sg5
g1291
sg6
g530
sg8
VKim Khan
p1294
sg10
g11
ssS'3b177a10-5731-4b19-acff-0ea2d3a3c762'
p1295
(dp1296
g3
S'1486875002'
p1297
sg5
g1295
sg6
g239
sg8
VCharlotte Melendez
p1298
sg10
g11
ssS'13e00d92-4317-4cc5-be41-ee2357c57009'
p1299
(dp1300
g3
S'1486936559'
p1301
sg5
g1299
sg6
g513
sg8
VPamela Barajas
p1302
sg10
g11
ssS'2e9b648e-b40b-4dbf-9f99-bf0c4a17a8d1'
p1303
(dp1304
g3
S'1486872190'
p1305
sg5
g1303
sg6
g435
sg8
VTravis Smith
p1306
sg10
g11
ssS'01c48978-4c44-4d5a-b8b3-9365f766431c'
p1307
(dp1308
g3
S'1486869503'
p1309
sg5
g1307
sg6
g104
sg8
VElizabeth Beltran
p1310
sg10
g11
ssS'a350ecb1-4770-4652-9807-70d7ba3bd006'
p1311
(dp1312
g3
S'1486906888'
p1313
sg5
g1311
sg6
g20
sg8
VJodi Ashley
p1314
sg10
g11
ssS'e7a3d65a-746b-402e-bcb2-56059e3e3d51'
p1315
(dp1316
g3
S'1486887004'
p1317
sg5
g1315
sg6
g30
sg8
VTracy Arias
p1318
sg10
g11
ssS'2300dd9b-68fa-4ba9-9a73-71d359faf92c'
p1319
(dp1320
g3
S'1486860252'
p1321
sg5
g1319
sg6
g305
sg8
VLisa Newman
p1322
sg10
g11
ssS'a076c989-75b7-4fe7-9dbb-e6c6c4cd5ac9'
p1323
(dp1324
g3
S'1486907814'
p1325
sg5
g1323
sg6
g75
sg8
VRichard Ramirez
p1326
sg10
g11
ssS'7648a6a5-3acd-4a77-994c-df4d0e3a4a05'
p1327
(dp1328
g3
S'1486875939'
p1329
sg5
g1327
sg6
g7
sg8
VKatherine Young
p1330
sg10
g11
ssS'811c70e1-6f64-426c-8e5c-f574bbde9b65'
p1331
(dp1332
g3
S'1486917313'
p1333
sg5
g1331
sg6
g249
sg8
VJohnny Carpenter
p1334
sg10
g11
ssS'786bb6f1-a96a-48fe-8fb8-c95d50ab37a2'
p1335
(dp1336
g3
S'1486904191'
p1337
sg5
g1335
sg6
g30
sg8
VAndrew Garcia
p1338
sg10
g11
ssS'fc2243a9-426a-4214-8365-a742aa6d1d49'
p1339
(dp1340
g3
S'1486886806'
p1341
sg5
g1339
sg6
g49
sg8
VSylvia Lin
p1342
sg10
g11
ssS'55011e24-998a-4f4d-a0bc-3ca77df9605b'
p1343
(dp1344
g3
S'1486880122'
p1345
sg5
g1343
sg6
g80
sg8
VFrancisco Lopez
p1346
sg10
g11
ssS'7468186c-e3fc-4eaf-a86b-ba10d6887253'
p1347
(dp1348
g3
S'1486903399'
p1349
sg5
g1347
sg6
g186
sg8
VScott Williamson
p1350
sg10
g11
ssS'548e7269-1a17-404f-9b67-8a7a78e581d2'
p1351
(dp1352
g3
S'1486936083'
p1353
sg5
g1351
sg6
g611
sg8
VJeffrey Campos
p1354
sg10
g11
ssS'bd8f43ad-735a-49dc-8eb4-688fa553b5e2'
p1355
(dp1356
g3
S'1486879764'
p1357
sg5
g1355
sg6
g80
sg8
VJodi Blair
p1358
sg10
g11
ssS'99e02ae2-9a11-4a6c-8b03-efe6c99679fa'
p1359
(dp1360
g3
S'1486881610'
p1361
sg5
g1359
sg6
g379
sg8
S'Garcia-Henson'
p1362
sg10
g51
ssS'2ebcc4d7-de4c-4550-ad06-35799b467864'
p1363
(dp1364
g3
S'1486870203'
p1365
sg5
g1363
sg6
g90
sg8
VBetty Ruiz
p1366
sg10
g11
ssS'e2d0aa4e-6f18-4ac7-8af3-8a0624596d44'
p1367
(dp1368
g3
S'1486928477'
p1369
sg5
g1367
sg6
g186
sg8
VCassandra Gonzalez
p1370
sg10
g11
ssS'a57d9f38-dd98-436f-8991-af6402be85bb'
p1371
(dp1372
g3
S'1486910979'
p1373
sg5
g1371
sg6
g117
sg8
VMadison Campbell
p1374
sg10
g11
ssS'c94cfdb1-e7cb-4e9a-accc-fe481df09708'
p1375
(dp1376
g3
S'1486900987'
p1377
sg5
g1375
sg6
g314
sg8
VJose Terry
p1378
sg10
g11
ssS'486d4d8a-c942-4ec6-bc6d-131295a3fffa'
p1379
(dp1380
g3
S'1486883040'
p1381
sg5
g1379
sg6
g229
sg8
VJessica Watkins
p1382
sg10
g11
ssS'bcff2c74-7a25-48f5-879b-447af6cbb841'
p1383
(dp1384
g3
S'1486943921'
p1385
sg5
g1383
sg6
g90
sg8
VKathleen Taylor
p1386
sg10
g11
ssS'9be29fc6-49aa-4d7a-be83-c87f2ab96d91'
p1387
(dp1388
g3
S'1486874940'
p1389
sg5
g1387
sg6
g85
sg8
VMatthew Warner
p1390
sg10
g11
ssS'0a37d75f-092b-4029-9260-9ed5d394dbef'
p1391
(dp1392
g3
S'1486895844'
p1393
sg5
g1391
sg6
g7
sg8
VAshley Dunn
p1394
sg10
g11
ssS'ec916cae-fcb6-4db2-be00-40fb360656db'
p1395
(dp1396
g3
S'1486924785'
p1397
sg5
g1395
sg6
g35
sg8
VMichael Patterson
p1398
sg10
g11
ssS'54a842de-175c-4eb5-82fd-4f38e7c0668a'
p1399
(dp1400
g3
S'1486912042'
p1401
sg5
g1399
sg6
g49
sg8
VCharles Kaufman
p1402
sg10
g11
ssS'72170aba-0ff8-4cf2-9c66-797126f73023'
p1403
(dp1404
g3
S'1486917756'
p1405
sg5
g1403
sg6
g165
sg8
VChristina Mcconnell
p1406
sg10
g11
ssS'a510a17c-5fcc-46c5-a35b-be373b18cb75'
p1407
(dp1408
g3
S'1486941722'
p1409
sg5
g1407
sg6
g409
sg8
VDr. Heather Newman
p1410
sg10
g11
ssS'b851f29d-30cb-4307-9a11-5e7d43cd4ef7'
p1411
(dp1412
g3
S'1486926360'
p1413
sg5
g1411
sg6
g744
sg8
VBrian Riggs
p1414
sg10
g11
ssS'3695d67f-5107-4eb5-b4e5-240a09c14041'
p1415
(dp1416
g3
S'1486917240'
p1417
sg5
g1415
sg6
g25
sg8
VHeather Montoya
p1418
sg10
g11
ssS'240b7219-513b-46c4-ad76-ecfc329eb1bd'
p1419
(dp1420
g3
S'1486940361'
p1421
sg5
g1419
sg6
g99
sg8
VAntonio Lopez
p1422
sg10
g11
ssS'11afa0bf-aacd-4a8c-bb4f-adc0371a3e86'
p1423
(dp1424
g3
S'1486896523'
p1425
sg5
g1423
sg6
g379
sg8
VMarissa Rivera
p1426
sg10
g11
ssS'd5462f45-ed13-4875-b69a-9511ff3d39e4'
p1427
(dp1428
g3
S'1486867645'
p1429
sg5
g1427
sg6
g496
sg8
VBryan Wang
p1430
sg10
g11
ssS'5f6d3ad1-0199-4450-b902-adb06398f33b'
p1431
(dp1432
g3
S'1486933302'
p1433
sg5
g1431
sg6
g20
sg8
VJason Garcia
p1434
sg10
g11
ssS'73563e24-affa-4fa4-b9e4-c6d1a95ea6c1'
p1435
(dp1436
g3
S'1486860052'
p1437
sg5
g1435
sg6
g611
sg8
VShannon Mills
p1438
sg10
g11
ssS'8e8650ae-2494-4887-936c-e29818459aa8'
p1439
(dp1440
g3
S'1486870003'
p1441
sg5
g1439
sg6
g135
sg8
VMichael Boyd
p1442
sg10
g11
ssS'8a26e133-3d1c-477a-9d31-6a6c34e88ce1'
p1443
(dp1444
g3
S'1486916793'
p1445
sg5
g1443
sg6
g314
sg8
VRobert Anderson
p1446
sg10
g11
ssS'4e3a41f9-1703-48de-b48d-2b2cfc6fa2a4'
p1447
(dp1448
g3
S'1486906123'
p1449
sg5
g1447
sg6
g530
sg8
VShannon Brown
p1450
sg10
g11
ssS'393ca058-94c2-4a57-b88a-c888e0f87cec'
p1451
(dp1452
g3
S'1486859393'
p1453
sg5
g1451
sg6
g25
sg8
VIsaac Kelley
p1454
sg10
g11
ssS'e5e070ed-d984-4d8e-8faf-bb340353223b'
p1455
(dp1456
g3
S'1486903092'
p1457
sg5
g1455
sg6
g208
sg8
VTina Roberts
p1458
sg10
g11
ssS'cf95a39d-e3d6-4e8f-bdd9-b32f2db2b16f'
p1459
(dp1460
g3
S'1486933824'
p1461
sg5
g1459
sg6
g296
sg8
VMr. Jeremiah Greene
p1462
sg10
g11
ssS'e25f9bd5-1dad-457c-8ee7-c529a5bd2258'
p1463
(dp1464
g3
S'1486900602'
p1465
sg5
g1463
sg6
g15
sg8
VBrandy Brooks
p1466
sg10
g11
ssS'f94da47c-4655-4ed6-8089-618891dabad3'
p1467
(dp1468
g3
S'1486929876'
p1469
sg5
g1467
sg6
g55
sg8
VJamie Perez
p1470
sg10
g11
ssS'f0115820-c1ad-4928-82f2-cc61cb27f8c0'
p1471
(dp1472
g3
S'1486870773'
p1473
sg5
g1471
sg6
g249
sg8
VPatrick Preston
p1474
sg10
g11
ssS'b2c8a4a0-a525-432d-99df-28a72b8e1591'
p1475
(dp1476
g3
S'1486938233'
p1477
sg5
g1475
sg6
g327
sg8
VChad Nielsen
p1478
sg10
g11
ssS'8551af5a-0b82-4232-bee3-6896cb996966'
p1479
(dp1480
g3
S'1486912242'
p1481
sg5
g1479
sg6
g513
sg8
VRobin Faulkner
p1482
sg10
g11
ssS'934f36d0-9223-469a-b18d-4d1ce631242e'
p1483
(dp1484
g3
S'1486919945'
p1485
sg5
g1483
sg6
g244
sg8
S'Diaz-Barnett'
p1486
sg10
g51
ssS'a91f40b2-a516-4fd7-b705-243dc2a3e21c'
p1487
(dp1488
g3
S'1486901615'
p1489
sg5
g1487
sg6
g379
sg8
VMaria Johnson
p1490
sg10
g11
ssS'c02c3d54-b3fb-479d-a0f0-277a74b2ad88'
p1491
(dp1492
g3
S'1486927333'
p1493
sg5
g1491
sg6
g296
sg8
VFrank Rivas
p1494
sg10
g11
ssS'f78960ba-a090-4a97-9cae-bc5bacabacb3'
p1495
(dp1496
g3
S'1486872662'
p1497
sg5
g1495
sg6
g25
sg8
VSusan Green
p1498
sg10
g11
ssS'b6f016d3-10c3-431c-a566-f55072da46aa'
p1499
(dp1500
g3
S'1486900993'
p1501
sg5
g1499
sg6
g278
sg8
S'Sweeney Ltd'
p1502
sg10
g51
ssS'bb0ea68a-b3c1-42d1-ae24-35ffd6d9d687'
p1503
(dp1504
g3
S'1486936415'
p1505
sg5
g1503
sg6
g496
sg8
VNathan Cruz
p1506
sg10
g11
ssS'6a5041a5-7b47-446a-b538-9f03dd944da5'
p1507
(dp1508
g3
S'1486881667'
p1509
sg5
g1507
sg6
g186
sg8
VAmy Smith
p1510
sg10
g11
ssS'436b6558-e75e-4440-b70c-721095211751'
p1511
(dp1512
g3
S'1486928705'
p1513
sg5
g1511
sg6
g404
sg8
VKristen Wilson
p1514
sg10
g11
ssS'25d42d27-b83c-488a-8c76-9f84ecadb1c6'
p1515
(dp1516
g3
S'1486921394'
p1517
sg5
g1515
sg6
g239
sg8
VTeresa Johnson
p1518
sg10
g11
ssS'9d07ec37-dfc3-400b-a598-e077722e1051'
p1519
(dp1520
g3
S'1486899797'
p1521
sg5
g1519
sg6
g186
sg8
VSophia Yates
p1522
sg10
g11
ssS'2943762b-6ec8-4dc8-b430-040cc3eac666'
p1523
(dp1524
g3
S'1486878613'
p1525
sg5
g1523
sg6
g20
sg8
VCaitlin Marquez
p1526
sg10
g11
ssS'24183fc5-7b95-4649-82a3-825399a5a199'
p1527
(dp1528
g3
S'1486871484'
p1529
sg5
g1527
sg6
g366
sg8
VEmily Johnson
p1530
sg10
g11
ssS'2d047c29-4886-49e0-a516-d5962c770ef1'
p1531
(dp1532
g3
S'1486878900'
p1533
sg5
g1531
sg6
g165
sg8
VMichael Mccarty
p1534
sg10
g11
ssS'5ee2ce86-a9c2-4aae-ace9-d99e33a2b81c'
p1535
(dp1536
g3
S'1486924617'
p1537
sg5
g1535
sg6
g90
sg8
VBrenda Zhang
p1538
sg10
g11
ssS'5928ebb9-2df1-4b52-8e76-38897b7068e5'
p1539
(dp1540
g3
S'1486859798'
p1541
sg5
g1539
sg6
g244
sg8
VAmber Graham
p1542
sg10
g11
ssS'61d7e97f-4923-481c-8328-bafe58e4095d'
p1543
(dp1544
g3
S'1486867561'
p1545
sg5
g1543
sg6
g249
sg8
VPhillip Montgomery
p1546
sg10
g11
ssS'3cd44d54-c773-44d4-b9da-036ae613d15b'
p1547
(dp1548
g3
S'1486935347'
p1549
sg5
g1547
sg6
g314
sg8
VAdriana King
p1550
sg10
g11
ssS'3382b83d-6d68-4f21-a643-03f702d7b54c'
p1551
(dp1552
g3
S'1486910386'
p1553
sg5
g1551
sg6
g75
sg8
VSara Hogan
p1554
sg10
g11
ssS'0ff5aa4f-e50d-44f9-a18b-5681aa424ccf'
p1555
(dp1556
g3
S'1486886444'
p1557
sg5
g1555
sg6
g117
sg8
S'Carter Nguyen and Watson'
p1558
sg10
g51
ssS'5b1cd861-b361-4054-abee-1f8622c12fbd'
p1559
(dp1560
g3
S'1486897269'
p1561
sg5
g1559
sg6
g30
sg8
VAnthony Montgomery
p1562
sg10
g11
ssS'11161b24-52d9-4f53-9818-e783ca5cf3fc'
p1563
(dp1564
g3
S'1486866372'
p1565
sg5
g1563
sg6
g409
sg8
VJennifer Garcia
p1566
sg10
g11
ssS'726a09a8-a306-440f-9556-35c8f2fc64a9'
p1567
(dp1568
g3
S'1486925964'
p1569
sg5
g1567
sg6
g249
sg8
VStephen Miller
p1570
sg10
g11
ssS'd16d02e9-b42c-4706-a9dd-b900daa7f28e'
p1571
(dp1572
g3
S'1486866220'
p1573
sg5
g1571
sg6
g287
sg8
VJesse Maldonado
p1574
sg10
g11
ssS'd269c5ec-ca18-431c-bbd8-129fc70b8230'
p1575
(dp1576
g3
S'1486944860'
p1577
sg5
g1575
sg6
g435
sg8
VKenneth Franklin
p1578
sg10
g11
ssS'61de8c7f-115d-467a-8c9e-c2f9607d629a'
p1579
(dp1580
g3
S'1486939135'
p1581
sg5
g1579
sg6
g344
sg8
VChristine Myers
p1582
sg10
g11
ssS'7f5c6271-0835-4351-a9cc-c8aea2f29c1a'
p1583
(dp1584
g3
S'1486863749'
p1585
sg5
g1583
sg6
g327
sg8
VMitchell Ochoa
p1586
sg10
g11
ssS'7e9e57c9-9b1e-4266-ae89-f4bf76a39580'
p1587
(dp1588
g3
S'1486930782'
p1589
sg5
g1587
sg6
g40
sg8
VBrad Scott
p1590
sg10
g11
ssS'036403cb-d8c8-4883-968a-90bcd39c6d7f'
p1591
(dp1592
g3
S'1486861726'
p1593
sg5
g1591
sg6
g496
sg8
VTiffany Jackson
p1594
sg10
g11
ssS'cef7405f-2fb8-496f-a35d-5525af860ead'
p1595
(dp1596
g3
S'1486880768'
p1597
sg5
g1595
sg6
g85
sg8
S'Hayes Spencer and Vasquez'
p1598
sg10
g51
ssS'3a11d1dd-4096-4112-89ac-448aad3b9992'
p1599
(dp1600
g3
S'1486870292'
p1601
sg5
g1599
sg6
g80
sg8
VChloe Harris
p1602
sg10
g11
ssS'66a71975-0119-4eb2-b5fe-02b905e84681'
p1603
(dp1604
g3
S'1486875002'
p1605
sg5
g1603
sg6
g75
sg8
VMelissa Stephens
p1606
sg10
g11
ssS'81b62253-c3c6-4cf6-bd72-acccd4cfbf4b'
p1607
(dp1608
g3
S'1486878982'
p1609
sg5
g1607
sg6
g20
sg8
VDavid Rodriguez
p1610
sg10
g11
ssS'd1919842-9520-4d7f-9b66-e0ddff96ebab'
p1611
(dp1612
g3
S'1486881497'
p1613
sg5
g1611
sg6
g249
sg8
VSusan Mccann
p1614
sg10
g11
ssS'8a4cff01-3be8-4309-869e-12d76ff8a453'
p1615
(dp1616
g3
S'1486933429'
p1617
sg5
g1615
sg6
g90
sg8
VJessica Stanley
p1618
sg10
g11
ssS'86df9c49-ba7e-47aa-b3e6-4fd2c8de4a47'
p1619
(dp1620
g3
S'1486875985'
p1621
sg5
g1619
sg6
g30
sg8
VNatalie Jackson
p1622
sg10
g11
ssS'774f00e5-6a77-4a42-995f-ddde8b6246c5'
p1623
(dp1624
g3
S'1486873543'
p1625
sg5
g1623
sg6
g55
sg8
VMichael Harrell
p1626
sg10
g11
ssS'e767785d-f28f-4047-be88-ea50cddd79f9'
p1627
(dp1628
g3
S'1486866457'
p1629
sg5
g1627
sg6
g278
sg8
S'Martinez Brown and Chapman'
p1630
sg10
g51
ssS'794c9a63-f17d-4f64-bf84-2ec62361e23f'
p1631
(dp1632
g3
S'1486919271'
p1633
sg5
g1631
sg6
g65
sg8
VHeather Ibarra
p1634
sg10
g11
ssS'97308bcd-a400-4f42-a693-4ba2c9cf3807'
p1635
(dp1636
g3
S'1486936922'
p1637
sg5
g1635
sg6
g191
sg8
VKatherine Preston
p1638
sg10
g11
ssS'36d146f7-ff44-4c85-9e68-df65072404b1'
p1639
(dp1640
g3
S'1486910364'
p1641
sg5
g1639
sg6
g409
sg8
VHeather Bowers
p1642
sg10
g11
ssS'c2820ae9-946f-4d75-82cd-a6db2efd882c'
p1643
(dp1644
g3
S'1486924366'
p1645
sg5
g1643
sg6
g344
sg8
VCarlos Davies
p1646
sg10
g11
ssS'8f65611d-740f-4ee1-81e1-a3ec68fdf1b8'
p1647
(dp1648
g3
S'1486863769'
p1649
sg5
g1647
sg6
g20
sg8
VCaitlin Howard
p1650
sg10
g11
ssS'78eb0d74-2eed-4ea5-9313-99f664116c2d'
p1651
(dp1652
g3
S'1486877446'
p1653
sg5
g1651
sg6
g135
sg8
VRonald Cowan
p1654
sg10
g11
ssS'2db6e230-e94d-4dc4-a05f-b294ef445d62'
p1655
(dp1656
g3
S'1486888908'
p1657
sg5
g1655
sg6
g117
sg8
VDanielle Jones
p1658
sg10
g11
ssS'dacfc796-4725-4a2e-81f9-9ea1c5959d29'
p1659
(dp1660
g3
S'1486898961'
p1661
sg5
g1659
sg6
g314
sg8
VMatthew Watson
p1662
sg10
g11
ssS'eeee8cc0-2512-40b5-b2f5-3ed596d78171'
p1663
(dp1664
g3
S'1486872993'
p1665
sg5
g1663
sg6
g25
sg8
VBenjamin Smith
p1666
sg10
g11
ssS'aa693969-f105-47c0-b13a-fa444b490ef5'
p1667
(dp1668
g3
S'1486863503'
p1669
sg5
g1667
sg6
g35
sg8
VJavier Rice
p1670
sg10
g11
ssS'a029d360-9d86-46d7-b6fe-86d33406dbe6'
p1671
(dp1672
g3
S'1486910224'
p1673
sg5
g1671
sg6
g234
sg8
VPeter Garrett
p1674
sg10
g11
ssS'054d1073-0dba-4337-8044-d61ff0a5cca2'
p1675
(dp1676
g3
S'1486920689'
p1677
sg5
g1675
sg6
g314
sg8
VPeter Floyd
p1678
sg10
g11
ssS'2e35756f-df71-48ca-9e02-bbeaa0910d53'
p1679
(dp1680
g3
S'1486914893'
p1681
sg5
g1679
sg6
g55
sg8
VStephanie Pope
p1682
sg10
g11
ssS'8722abda-e853-4cb5-84c3-88b1cef6edd7'
p1683
(dp1684
g3
S'1486904978'
p1685
sg5
g1683
sg6
g409
sg8
VEvelyn Gonzalez
p1686
sg10
g11
ssS'25465df8-3625-4c84-9baa-fdcc5d3b4124'
p1687
(dp1688
g3
S'1486874917'
p1689
sg5
g1687
sg6
g278
sg8
VBarry Shepherd
p1690
sg10
g11
ssS'b312a9ac-b9b5-4414-9fc5-39a095b113e4'
p1691
(dp1692
g3
S'1486920859'
p1693
sg5
g1691
sg6
g611
sg8
VRachel Logan
p1694
sg10
g11
ssS'86e8b302-3782-4e59-a8b7-0ac782548de3'
p1695
(dp1696
g3
S'1486929689'
p1697
sg5
g1695
sg6
g55
sg8
VStephen Pace
p1698
sg10
g11
ssS'1f6b3c0f-42d0-452f-8af3-1ff053321493'
p1699
(dp1700
g3
S'1486915063'
p1701
sg5
g1699
sg6
g234
sg8
VAngela Wong
p1702
sg10
g11
ssS'fdfc58e2-6769-4812-b322-f2f067951e20'
p1703
(dp1704
g3
S'1486860788'
p1705
sg5
g1703
sg6
g7
sg8
VBrian Smith
p1706
sg10
g11
ssS'658aa825-803a-4058-9e16-b78b1c061b20'
p1707
(dp1708
g3
S'1486882605'
p1709
sg5
g1707
sg6
g305
sg8
VAnne Dickerson
p1710
sg10
g11
ssS'd8bc23f9-438a-415a-9aff-461f27d4fa7c'
p1711
(dp1712
g3
S'1486870961'
p1713
sg5
g1711
sg6
g430
sg8
VLynn Hester PhD
p1714
sg10
g11
ssS'f8e827ab-c738-4a71-9d6f-63542ec6933a'
p1715
(dp1716
g3
S'1486864291'
p1717
sg5
g1715
sg6
g25
sg8
VJames Ayers
p1718
sg10
g11
ssS'56e86def-a7fd-4555-8a77-cbdba2459e73'
p1719
(dp1720
g3
S'1486917002'
p1721
sg5
g1719
sg6
g99
sg8
VBrittany Johnson
p1722
sg10
g11
ssS'39072612-bc48-4e62-8266-65cd15407472'
p1723
(dp1724
g3
S'1486916697'
p1725
sg5
g1723
sg6
g49
sg8
VKaren Cochran
p1726
sg10
g11
ssS'f0faf000-41f5-4d36-89d8-46cdeafea1ab'
p1727
(dp1728
g3
S'1486916655'
p1729
sg5
g1727
sg6
g104
sg8
VMark Harris
p1730
sg10
g11
ssS'e5e73ca1-f26d-4ae9-b0cd-bbb12b888351'
p1731
(dp1732
g3
S'1486888073'
p1733
sg5
g1731
sg6
g404
sg8
VBrittany Hunter
p1734
sg10
g11
ssS'1ac8730b-6005-48e9-9f14-80ef64f15c83'
p1735
(dp1736
g3
S'1486897273'
p1737
sg5
g1735
sg6
g344
sg8
VTim Hinton
p1738
sg10
g11
ssS'fffcc378-547f-40f4-8b9a-19395722cadd'
p1739
(dp1740
g3
S'1486936173'
p1741
sg5
g1739
sg6
g430
sg8
VRandy Riley
p1742
sg10
g11
ssS'0161edca-3549-4c8d-9eb3-6e6a6eed8933'
p1743
(dp1744
g3
S'1486943155'
p1745
sg5
g1743
sg6
g430
sg8
VHeather Campbell
p1746
sg10
g11
ssS'80c76d65-59e2-4cea-8ff9-09ffb68d1d95'
p1747
(dp1748
g3
S'1486911658'
p1749
sg5
g1747
sg6
g344
sg8
VJames Simon
p1750
sg10
g11
ssS'2f584040-3b5f-4c5f-ac94-621d391b288e'
p1751
(dp1752
g3
S'1486909281'
p1753
sg5
g1751
sg6
g749
sg8
VTyler Lewis
p1754
sg10
g11
ssS'22c88bd6-c0b0-4596-8d19-21916bad1dae'
p1755
(dp1756
g3
S'1486887409'
p1757
sg5
g1755
sg6
g85
sg8
VMatthew Carpenter
p1758
sg10
g11
ssS'c9a65ed1-c9e0-47fe-b271-e8f48f9d49ee'
p1759
(dp1760
g3
S'1486935843'
p1761
sg5
g1759
sg6
g135
sg8
VPenny Calderon
p1762
sg10
g11
ssS'559ecd7e-1c7d-4265-a472-c04e38c9c9c5'
p1763
(dp1764
g3
S'1486869144'
p1765
sg5
g1763
sg6
g404
sg8
VJasmine Jones
p1766
sg10
g11
ssS'82c39189-0c66-4d59-8cc2-aead6a5f5671'
p1767
(dp1768
g3
S'1486899982'
p1769
sg5
g1767
sg6
g135
sg8
VRichard Todd
p1770
sg10
g11
ssS'fdfb38de-a32f-4cd2-9844-d8b376ec34c9'
p1771
(dp1772
g3
S'1486902323'
p1773
sg5
g1771
sg6
g349
sg8
VRuth Smith
p1774
sg10
g11
ssS'dd1c8bdb-430d-4f9b-8421-0c151fa353f7'
p1775
(dp1776
g3
S'1486928852'
p1777
sg5
g1775
sg6
g513
sg8
VChristy Martin
p1778
sg10
g11
ssS'df70e422-e30a-4697-93df-a40ea40987e7'
p1779
(dp1780
g3
S'1486865076'
p1781
sg5
g1779
sg6
g249
sg8
VApril Cunningham
p1782
sg10
g11
ssS'ce8f2ba2-ebde-48e4-887a-fd10a0832f8c'
p1783
(dp1784
g3
S'1486941110'
p1785
sg5
g1783
sg6
g513
sg8
VGloria Mayo
p1786
sg10
g11
ssS'a3a22586-468d-4c49-b729-fdebcb065228'
p1787
(dp1788
g3
S'1486914694'
p1789
sg5
g1787
sg6
g80
sg8
VAndrew Castillo
p1790
sg10
g11
ssS'6744ab3e-e2e8-439a-9995-ad7830c55745'
p1791
(dp1792
g3
S'1486863069'
p1793
sg5
g1791
sg6
g513
sg8
VMichelle Bullock
p1794
sg10
g11
ssS'78673074-5600-43eb-b499-6c3a2c6b778c'
p1795
(dp1796
g3
S'1486870713'
p1797
sg5
g1795
sg6
g744
sg8
VGabriel Cooper
p1798
sg10
g11
ssS'468b3b72-1b77-492b-9d1c-fe8ce89bac0f'
p1799
(dp1800
g3
S'1486918505'
p1801
sg5
g1799
sg6
g530
sg8
VNicholas White
p1802
sg10
g11
ssS'16bfbddd-4a9c-4d7b-94da-d2506224f356'
p1803
(dp1804
g3
S'1486897954'
p1805
sg5
g1803
sg6
g75
sg8
VBarbara Henry
p1806
sg10
g11
ssS'946efe3b-9d58-4bdc-be32-f8fce56882e2'
p1807
(dp1808
g3
S'1486898400'
p1809
sg5
g1807
sg6
g35
sg8
VJames Wilson
p1810
sg10
g11
ssS'8050918c-9193-4b47-81df-9001cf658401'
p1811
(dp1812
g3
S'1486868774'
p1813
sg5
g1811
sg6
g20
sg8
VHarry Kelly
p1814
sg10
g11
ssS'1c0690cd-081f-4d06-8250-845daad7901d'
p1815
(dp1816
g3
S'1486931723'
p1817
sg5
g1815
sg6
g513
sg8
VEric Mcmahon
p1818
sg10
g11
ssS'c687c8e8-37d5-4b38-9ceb-e8fe286f873a'
p1819
(dp1820
g3
S'1486898592'
p1821
sg5
g1819
sg6
g104
sg8
VTimothy Washington
p1822
sg10
g11
ssS'54203d4c-3371-4342-9c02-46bc444960b4'
p1823
(dp1824
g3
S'1486925344'
p1825
sg5
g1823
sg6
g513
sg8
VAmanda Obrien
p1826
sg10
g11
ssS'0cecdd68-7c4e-48c7-94f9-9574b4afd415'
p1827
(dp1828
g3
S'1486890110'
p1829
sg5
g1827
sg6
g611
sg8
VChristopher Craig
p1830
sg10
g11
ssS'7c0ac4bf-eacd-4fa9-9a68-7565f4d70970'
p1831
(dp1832
g3
S'1486921968'
p1833
sg5
g1831
sg6
g435
sg8
VAlyssa Obrien
p1834
sg10
g11
ssS'59617473-3a02-4c8a-8de5-9ee074dc3f82'
p1835
(dp1836
g3
S'1486892167'
p1837
sg5
g1835
sg6
g7
sg8
VMr. Christopher Bailey
p1838
sg10
g11
ssS'3c7d1f54-1171-4e5e-9ca8-4570e5c76444'
p1839
(dp1840
g3
S'1486901287'
p1841
sg5
g1839
sg6
g75
sg8
VDeborah Carrillo
p1842
sg10
g11
ssS'f3307b02-0a33-4d01-98b6-43e3c30405a3'
p1843
(dp1844
g3
S'1486927618'
p1845
sg5
g1843
sg6
g30
sg8
VElizabeth Tran
p1846
sg10
g11
ssS'f9dde5bd-fec1-4bee-bac1-a7d3a44bfb6f'
p1847
(dp1848
g3
S'1486904188'
p1849
sg5
g1847
sg6
g40
sg8
VJaclyn Carney
p1850
sg10
g11
ssS'fba83459-3059-4823-8b4d-cbfe07c2f5bf'
p1851
(dp1852
g3
S'1486866101'
p1853
sg5
g1851
sg6
g104
sg8
S'Parker Kennedy and Carney'
p1854
sg10
g51
ssS'b13edcea-8851-4cea-afa0-b5630d60b879'
p1855
(dp1856
g3
S'1486902658'
p1857
sg5
g1855
sg6
g611
sg8
VCatherine Wallace
p1858
sg10
g11
ssS'a4879a30-d951-4e87-9220-1eaf6857fd5b'
p1859
(dp1860
g3
S'1486868213'
p1861
sg5
g1859
sg6
g49
sg8
VSandra Harris
p1862
sg10
g11
ssS'92dbefd3-154e-42bc-b563-930e60352cb2'
p1863
(dp1864
g3
S'1486913952'
p1865
sg5
g1863
sg6
g165
sg8
VMichelle Munoz
p1866
sg10
g11
ssS'51891a59-0b41-4431-90aa-3045d1876a7b'
p1867
(dp1868
g3
S'1486863343'
p1869
sg5
g1867
sg6
g305
sg8
VMaria Fletcher
p1870
sg10
g11
ssS'882541df-0910-4561-98c2-8f3620a50c9d'
p1871
(dp1872
g3
S'1486861364'
p1873
sg5
g1871
sg6
g366
sg8
S'Thompson-Taylor'
p1874
sg10
g51
ssS'816c307a-ed89-43ff-88e7-8bfa0d85b457'
p1875
(dp1876
g3
S'1486859066'
p1877
sg5
g1875
sg6
g234
sg8
VCindy Turner
p1878
sg10
g11
ssS'9df1fab6-85dd-44b7-875b-2c88821fdd7c'
p1879
(dp1880
g3
S'1486918810'
p1881
sg5
g1879
sg6
g104
sg8
VCorey Gay
p1882
sg10
g11
ssS'ebd65c0b-923c-46fb-968b-026ea311c29e'
p1883
(dp1884
g3
S'1486890679'
p1885
sg5
g1883
sg6
g65
sg8
VDaniel Wells
p1886
sg10
g11
ssS'aefbdc91-42d6-45cb-826b-3db9d2691531'
p1887
(dp1888
g3
S'1486928885'
p1889
sg5
g1887
sg6
g85
sg8
VCameron Mendoza
p1890
sg10
g11
ssS'517e4b4e-55a2-4faf-bbb7-77b9f4276c83'
p1891
(dp1892
g3
S'1486870476'
p1893
sg5
g1891
sg6
g278
sg8
VJesse Lopez
p1894
sg10
g11
ssS'1a717a99-c247-4913-a344-727c7eb7bda7'
p1895
(dp1896
g3
S'1486859403'
p1897
sg5
g1895
sg6
g379
sg8
S'Boone Lee and Patton'
p1898
sg10
g51
ssS'fa90c81e-37dd-47e2-a93e-d0998656dee4'
p1899
(dp1900
g3
S'1486879532'
p1901
sg5
g1899
sg6
g60
sg8
VBradley Mclean
p1902
sg10
g11
ssS'24f3a1ed-ef46-4952-ad5d-b84f57d32071'
p1903
(dp1904
g3
S'1486902836'
p1905
sg5
g1903
sg6
g244
sg8
VAndrea Smith
p1906
sg10
g11
ssS'ec99b68f-0bf8-437e-8116-e1177ac83b94'
p1907
(dp1908
g3
S'1486893214'
p1909
sg5
g1907
sg6
g135
sg8
VRhonda King
p1910
sg10
g11
ssS'16798c2b-1576-43bc-bb79-326a70cc624a'
p1911
(dp1912
g3
S'1486913633'
p1913
sg5
g1911
sg6
g70
sg8
VKelly Davis
p1914
sg10
g11
ssS'9e751115-8776-404a-aa43-d62a8b6a17b4'
p1915
(dp1916
g3
S'1486927076'
p1917
sg5
g1915
sg6
g314
sg8
VJacob Rodriguez
p1918
sg10
g11
ssS'd51b1196-6e5a-4ec9-af9c-2758212afd0a'
p1919
(dp1920
g3
S'1486913950'
p1921
sg5
g1919
sg6
g70
sg8
VRyan Ayers
p1922
sg10
g11
ssS'f10ae33c-b511-430a-8d84-ae0f3aab6ffd'
p1923
(dp1924
g3
S'1486886762'
p1925
sg5
g1923
sg6
g65
sg8
VDuane Brown
p1926
sg10
g11
ssS'091c2d39-2c3a-4379-99fd-cbfa9ff73ec4'
p1927
(dp1928
g3
S'1486898094'
p1929
sg5
g1927
sg6
g430
sg8
S'Green Murphy and Johnson'
p1930
sg10
g51
ssS'd2d1118b-0508-4bd1-a887-642edc4da2ba'
p1931
(dp1932
g3
S'1486916355'
p1933
sg5
g1931
sg6
g75
sg8
VSteve Phillips
p1934
sg10
g11
ssS'64f15d7b-1d8f-410d-abe9-4264ef839cbc'
p1935
(dp1936
g3
S'1486892187'
p1937
sg5
g1935
sg6
g20
sg8
VScott Frost
p1938
sg10
g11
ssS'b58c5ac0-421a-41d6-bb75-94991fbc022b'
p1939
(dp1940
g3
S'1486901673'
p1941
sg5
g1939
sg6
g186
sg8
VEugene Barrera
p1942
sg10
g11
ssS'3ad93bf5-de57-4f25-a81a-38a1e436c51b'
p1943
(dp1944
g3
S'1486870859'
p1945
sg5
g1943
sg6
g611
sg8
VErik Glenn
p1946
sg10
g11
ssS'2cc1536b-0007-4570-a2f7-277c745849ac'
p1947
(dp1948
g3
S'1486874591'
p1949
sg5
g1947
sg6
g404
sg8
VLaurie Fry
p1950
sg10
g11
ssS'0a1673a6-5de7-467b-9b6a-0d08d1d8cb5b'
p1951
(dp1952
g3
S'1486878892'
p1953
sg5
g1951
sg6
g25
sg8
VRachel Dyer
p1954
sg10
g11
ssS'7af0e3a5-690d-4cf1-90d0-76c10e9633fd'
p1955
(dp1956
g3
S'1486939475'
p1957
sg5
g1955
sg6
g60
sg8
VKevin Reid
p1958
sg10
g11
ssS'4eae06fb-33bd-4d17-8eec-3869e6d32e4b'
p1959
(dp1960
g3
S'1486872131'
p1961
sg5
g1959
sg6
g90
sg8
VRachel Price
p1962
sg10
g11
ssS'a5868d1d-42e9-42be-97d9-012fc97dcfcf'
p1963
(dp1964
g3
S'1486886022'
p1965
sg5
g1963
sg6
g430
sg8
VAnna Riley MD
p1966
sg10
g11
ssS'4a1ac0f3-7474-4457-8f91-a038a663389e'
p1967
(dp1968
g3
S'1486937452'
p1969
sg5
g1967
sg6
g7
sg8
VDeborah Curry
p1970
sg10
g11
ssS'efd4d3e9-b964-491e-acd8-09d9f4b4b2b1'
p1971
(dp1972
g3
S'1486858705'
p1973
sg5
g1971
sg6
g60
sg8
VSean Dorsey
p1974
sg10
g11
ssS'7e76ee0c-8d44-40e2-a01a-e38033559195'
p1975
(dp1976
g3
S'1486861711'
p1977
sg5
g1975
sg6
g305
sg8
VEmily Bowers
p1978
sg10
g11
ssS'57a0d0fd-b33b-4343-8399-7d959e824a61'
p1979
(dp1980
g3
S'1486877956'
p1981
sg5
g1979
sg6
g191
sg8
VTerry Fritz
p1982
sg10
g11
ssS'aec353b9-956f-4e7c-8a92-1176a8b29a7e'
p1983
(dp1984
g3
S'1486915064'
p1985
sg5
g1983
sg6
g366
sg8
VJustin Charles
p1986
sg10
g11
ssS'ef00db7b-27db-4cbb-ac10-a3bf2d3a6dc6'
p1987
(dp1988
g3
S'1486928496'
p1989
sg5
g1987
sg6
g430
sg8
VTracy Schroeder
p1990
sg10
g11
ssS'd6d29905-b48b-4a2f-88d1-e5d32eba6ad9'
p1991
(dp1992
g3
S'1486867885'
p1993
sg5
g1991
sg6
g20
sg8
VThomas Pratt
p1994
sg10
g11
ssS'212ede41-826d-46d5-b5ad-ffe8884ef5c4'
p1995
(dp1996
g3
S'1486872457'
p1997
sg5
g1995
sg6
g513
sg8
VJonathan Acosta
p1998
sg10
g11
ssS'ce2d1cc9-1217-488b-a447-52c63d6e67e4'
p1999
(dp2000
g3
S'1486920122'
p2001
sg5
g1999
sg6
g186
sg8
VZachary Aguilar
p2002
sg10
g11
ssS'd0dc6222-9192-492a-9391-8905a60b7b93'
p2003
(dp2004
g3
S'1486911095'
p2005
sg5
g2003
sg6
g40
sg8
VMarie Cannon
p2006
sg10
g11
ssS'17b1d3cc-1038-46bb-943e-e47897a7a966'
p2007
(dp2008
g3
S'1486920221'
p2009
sg5
g2007
sg6
g366
sg8
VRobert Benton
p2010
sg10
g11
ssS'2360923c-cd3f-4653-abb6-4f8c052ad49c'
p2011
(dp2012
g3
S'1486891935'
p2013
sg5
g2011
sg6
g25
sg8
VJacob Jenkins
p2014
sg10
g11
ssS'54849900-f3c8-48fc-8db1-9c23ec314b0a'
p2015
(dp2016
g3
S'1486937123'
p2017
sg5
g2015
sg6
g49
sg8
VMark Robles
p2018
sg10
g11
ssS'75a56c7e-4c94-4017-a33b-e3837505c0de'
p2019
(dp2020
g3
S'1486870784'
p2021
sg5
g2019
sg6
g49
sg8
VMr. Joshua Bell
p2022
sg10
g11
ssS'73be7ab4-28c8-4350-864b-f4a0b1afa61e'
p2023
(dp2024
g3
S'1486897474'
p2025
sg5
g2023
sg6
g287
sg8
VDonald Rivera
p2026
sg10
g11
ssS'dbe74a0e-b04b-4e0a-8571-a11e8a9955d3'
p2027
(dp2028
g3
S'1486882863'
p2029
sg5
g2027
sg6
g60
sg8
VJesse Davis
p2030
sg10
g11
ssS'51681730-37c8-4c39-8a1d-6c9d6bf663c7'
p2031
(dp2032
g3
S'1486906275'
p2033
sg5
g2031
sg6
g186
sg8
VCynthia Simmons
p2034
sg10
g11
ssS'f5575f7c-3c87-4513-9164-3fac8e0f9e3b'
p2035
(dp2036
g3
S'1486859132'
p2037
sg5
g2035
sg6
g104
sg8
S'Rojas-Harrison'
p2038
sg10
g51
ssS'f8219514-dc32-48d8-81bd-c3fbc8722a97'
p2039
(dp2040
g3
S'1486905969'
p2041
sg5
g2039
sg6
g152
sg8
VConnie Johnson PhD
p2042
sg10
g11
ssS'd2002566-4120-4f1e-b318-4e3b2c2348b8'
p2043
(dp2044
g3
S'1486863727'
p2045
sg5
g2043
sg6
g40
sg8
VMrs. Mary Gonzales
p2046
sg10
g11
ssS'1af94577-722c-4c05-8f1b-5a9de83c4bfc'
p2047
(dp2048
g3
S'1486934998'
p2049
sg5
g2047
sg6
g208
sg8
VMatthew Mcdonald
p2050
sg10
g11
ssS'1b480156-aa7c-431f-b8c2-a41648d3911e'
p2051
(dp2052
g3
S'1486860723'
p2053
sg5
g2051
sg6
g296
sg8
VMary Perez
p2054
sg10
g11
ssS'9123076b-2da6-4036-906d-ae9bf92cae08'
p2055
(dp2056
g3
S'1486879212'
p2057
sg5
g2055
sg6
g409
sg8
VGlenda Case
p2058
sg10
g11
ssS'543be7ef-c579-4c1e-849e-17edab20b5a1'
p2059
(dp2060
g3
S'1486873805'
p2061
sg5
g2059
sg6
g65
sg8
VKathryn Marshall
p2062
sg10
g11
ssS'39830e95-8085-46ca-b7be-e959d1714c5b'
p2063
(dp2064
g3
S'1486934944'
p2065
sg5
g2063
sg6
g234
sg8
VChristian Stewart
p2066
sg10
g11
ssS'45b0be31-5fd2-4165-90b7-3a4b3e8dae72'
p2067
(dp2068
g3
S'1486890420'
p2069
sg5
g2067
sg6
g85
sg8
VAndrew Jones
p2070
sg10
g11
ssS'525db492-f9ca-4ded-92d5-4c72ea3988ce'
p2071
(dp2072
g3
S'1486938684'
p2073
sg5
g2071
sg6
g35
sg8
VSandra Jones
p2074
sg10
g11
ssS'9fd8364d-5dc0-4a5a-8604-709ec01f62d5'
p2075
(dp2076
g3
S'1486941554'
p2077
sg5
g2075
sg6
g40
sg8
VBruce Vazquez
p2078
sg10
g11
ssS'f2af6bda-9883-445b-9ea5-6ce48527ce8f'
p2079
(dp2080
g3
S'1486936698'
p2081
sg5
g2079
sg6
g7
sg8
VPatrick Molina Jr.
p2082
sg10
g11
ssS'64dad963-4f57-4cf1-8332-6b3d621d53c4'
p2083
(dp2084
g3
S'1486915685'
p2085
sg5
g2083
sg6
g25
sg8
VWendy Olson
p2086
sg10
g11
ssS'b6ad2cf4-c159-4ce7-b0fe-e79c884f10ce'
p2087
(dp2088
g3
S'1486877941'
p2089
sg5
g2087
sg6
g327
sg8
VKatrina Roberts
p2090
sg10
g11
ssS'9f96fef2-57f6-4c6b-9304-5bcfded904e5'
p2091
(dp2092
g3
S'1486929106'
p2093
sg5
g2091
sg6
g55
sg8
VAnthony Russell
p2094
sg10
g11
ssS'7b9f2e73-b471-4ee5-a4d8-f0c8bbae03cd'
p2095
(dp2096
g3
S'1486883561'
p2097
sg5
g2095
sg6
g90
sg8
VDeanna Rasmussen
p2098
sg10
g11
ssS'5db9f461-0ebd-48db-874e-93be03f4327d'
p2099
(dp2100
g3
S'1486942903'
p2101
sg5
g2099
sg6
g70
sg8
S'White-Stone'
p2102
sg10
g51
ssS'f8591dc6-8bab-4f4b-aa5b-79e2c6f27e90'
p2103
(dp2104
g3
S'1486872304'
p2105
sg5
g2103
sg6
g135
sg8
VChristopher Moody
p2106
sg10
g11
ssS'2ca73823-1af8-4bfb-bbae-c54b06e9463d'
p2107
(dp2108
g3
S'1486874516'
p2109
sg5
g2107
sg6
g744
sg8
VDawn Jarvis
p2110
sg10
g11
ssS'896cc16e-fba7-4dfc-9648-7336d53304b0'
p2111
(dp2112
g3
S'1486907044'
p2113
sg5
g2111
sg6
g234
sg8
VKaren Walker
p2114
sg10
g11
ssS'7952b092-5458-4c15-b8be-dc61b1952dc1'
p2115
(dp2116
g3
S'1486881320'
p2117
sg5
g2115
sg6
g349
sg8
VFrank Patton MD
p2118
sg10
g11
ssS'b8cd220d-382b-4e15-a120-e3e65aa08175'
p2119
(dp2120
g3
S'1486868191'
p2121
sg5
g2119
sg6
g349
sg8
VJordan Boyd
p2122
sg10
g11
ssS'ff6e6554-d74d-4709-8414-c31d7d0997de'
p2123
(dp2124
g3
S'1486866571'
p2125
sg5
g2123
sg6
g744
sg8
VSamantha Reyes
p2126
sg10
g11
ssS'c2181c0e-462b-4ca6-9502-ab847cbf64c5'
p2127
(dp2128
g3
S'1486919654'
p2129
sg5
g2127
sg6
g208
sg8
VRobert Daniels
p2130
sg10
g11
ssS'988949e0-34a8-4b2e-8cc6-d8b562aaf04e'
p2131
(dp2132
g3
S'1486894081'
p2133
sg5
g2131
sg6
g15
sg8
VAmy Bryan
p2134
sg10
g11
ssS'c79f08ed-b091-467b-85f1-41654769d459'
p2135
(dp2136
g3
S'1486905836'
p2137
sg5
g2135
sg6
g287
sg8
VJohn Hall
p2138
sg10
g11
ssS'f893add3-ef1d-407e-91ac-b367d5933332'
p2139
(dp2140
g3
S'1486937630'
p2141
sg5
g2139
sg6
g249
sg8
VJames Smith
p2142
sg10
g11
ssS'c4f3dcef-1ef9-4dbf-a99e-3a3d0b1abd39'
p2143
(dp2144
g3
S'1486921233'
p2145
sg5
g2143
sg6
g130
sg8
VMary Maxwell
p2146
sg10
g11
ssS'c9cd6111-fae4-4002-abc5-c82b552380f2'
p2147
(dp2148
g3
S'1486897832'
p2149
sg5
g2147
sg6
g15
sg8
VTaylor Small
p2150
sg10
g11
ssS'6c9809ea-d913-4046-a2b9-e963ac856dd3'
p2151
(dp2152
g3
S'1486863244'
p2153
sg5
g2151
sg6
g90
sg8
VDaniel Pratt
p2154
sg10
g11
ssS'def955e3-c4f1-4d33-9bab-5936b7444db4'
p2155
(dp2156
g3
S'1486867411'
p2157
sg5
g2155
sg6
g430
sg8
VGeorge Curry
p2158
sg10
g11
ssS'b8b54458-ddb0-4dc2-94b3-397d27cf6fe6'
p2159
(dp2160
g3
S'1486902450'
p2161
sg5
g2159
sg6
g234
sg8
VSamantha Patterson
p2162
sg10
g11
ssS'706d4b6b-a504-4752-b3a6-2a3adac336c6'
p2163
(dp2164
g3
S'1486864457'
p2165
sg5
g2163
sg6
g75
sg8
VLatasha Bell
p2166
sg10
g11
ssS'05513664-e213-42d3-855a-774d9b5404c8'
p2167
(dp2168
g3
S'1486903216'
p2169
sg5
g2167
sg6
g314
sg8
VVeronica Moyer MD
p2170
sg10
g11
ssS'a31e9177-adb3-4d69-b704-d0e2b7b432f6'
p2171
(dp2172
g3
S'1486907693'
p2173
sg5
g2171
sg6
g20
sg8
VLynn Mosley
p2174
sg10
g11
ssS'2d70d8eb-87d9-4a68-9c00-a237fed5841c'
p2175
(dp2176
g3
S'1486892879'
p2177
sg5
g2175
sg6
g239
sg8
VCynthia Vasquez
p2178
sg10
g11
ssS'f81abd14-64e1-4c04-859e-602ba96a5db0'
p2179
(dp2180
g3
S'1486928743'
p2181
sg5
g2179
sg6
g117
sg8
VMr. Logan White
p2182
sg10
g11
ssS'012041a0-95e5-4f88-9ed2-97750f855faf'
p2183
(dp2184
g3
S'1486868568'
p2185
sg5
g2183
sg6
g30
sg8
VJoanna Curtis MD
p2186
sg10
g11
ssS'43e88d61-134d-4ed3-a942-a7b34d333248'
p2187
(dp2188
g3
S'1486912385'
p2189
sg5
g2187
sg6
g296
sg8
VJoseph Jackson
p2190
sg10
g11
ssS'16bc105d-cb69-4e90-8b3a-2e0378c370e2'
p2191
(dp2192
g3
S'1486867623'
p2193
sg5
g2191
sg6
g70
sg8
S'Coleman Roach and Sutton'
p2194
sg10
g51
ssS'1110bfce-485e-4057-b82f-42c1389c6e61'
p2195
(dp2196
g3
S'1486901346'
p2197
sg5
g2195
sg6
g278
sg8
VMatthew Atkins
p2198
sg10
g11
ssS'8d94ed41-0992-4f44-8b06-93c949c641ad'
p2199
(dp2200
g3
S'1486940553'
p2201
sg5
g2199
sg6
g244
sg8
VLinda Flynn
p2202
sg10
g11
ssS'c8f5a763-141e-4149-a89d-29b4b6612f42'
p2203
(dp2204
g3
S'1486936082'
p2205
sg5
g2203
sg6
g208
sg8
VMichael Mathis
p2206
sg10
g11
ssS'b3648398-2a54-4bf6-8a1a-ac6169a536b6'
p2207
(dp2208
g3
S'1486918826'
p2209
sg5
g2207
sg6
g379
sg8
VDarrell Mcdaniel
p2210
sg10
g11
ssS'55397961-e523-442b-bdf2-c329136b77f5'
p2211
(dp2212
g3
S'1486909532'
p2213
sg5
g2211
sg6
g186
sg8
S'Rodgers LLC'
p2214
sg10
g51
ssS'741384b4-e431-4f46-9809-077ab02f7230'
p2215
(dp2216
g3
S'1486880518'
p2217
sg5
g2215
sg6
g130
sg8
VLinda Rowe
p2218
sg10
g11
ssS'51dc4758-ac2c-44e0-b602-e64d225a3ce7'
p2219
(dp2220
g3
S'1486933072'
p2221
sg5
g2219
sg6
g135
sg8
VSean Bolton
p2222
sg10
g11
ssS'65445715-7b79-46f3-ac7d-015bbde33025'
p2223
(dp2224
g3
S'1486862469'
p2225
sg5
g2223
sg6
g379
sg8
VScott Campbell
p2226
sg10
g11
ssS'f6de1dfd-e85e-4aa1-a003-3a1cb2c6b1d4'
p2227
(dp2228
g3
S'1486923700'
p2229
sg5
g2227
sg6
g239
sg8
VStephanie Willis
p2230
sg10
g11
ssS'3b212e50-2648-4771-9355-09a78ec42c46'
p2231
(dp2232
g3
S'1486886944'
p2233
sg5
g2231
sg6
g90
sg8
S'Wagner Clark and Stone'
p2234
sg10
g51
ssS'1894ade8-7ffd-4309-85c4-8336065551ee'
p2235
(dp2236
g3
S'1486904695'
p2237
sg5
g2235
sg6
g130
sg8
VRachel Roberson
p2238
sg10
g11
ssS'7cacfb05-729d-4c8b-8ad6-7c68cfe9fcf3'
p2239
(dp2240
g3
S'1486874260'
p2241
sg5
g2239
sg6
g409
sg8
VMegan Garcia
p2242
sg10
g11
ssS'f30c8ecd-7c2d-429d-96aa-9d84d9ba2f9d'
p2243
(dp2244
g3
S'1486932217'
p2245
sg5
g2243
sg6
g344
sg8
VCynthia Phillips
p2246
sg10
g11
ssS'2b8a031d-6256-4ab1-ba17-a3fdc0d04a3e'
p2247
(dp2248
g3
S'1486894146'
p2249
sg5
g2247
sg6
g229
sg8
VNatalie Harris
p2250
sg10
g11
ssS'329d7d32-25d7-4ef5-8990-ea74b93d86c1'
p2251
(dp2252
g3
S'1486901019'
p2253
sg5
g2251
sg6
g55
sg8
VDaniel Barnett
p2254
sg10
g11
ssS'83dd27f1-7a44-4d3f-93b0-40798bf65748'
p2255
(dp2256
g3
S'1486877216'
p2257
sg5
g2255
sg6
g117
sg8
VStephen Yu
p2258
sg10
g11
ssS'3fb14ed1-bc84-44dd-957f-db0aa6dca478'
p2259
(dp2260
g3
S'1486942597'
p2261
sg5
g2259
sg6
g191
sg8
VAmanda Harris
p2262
sg10
g11
ssS'28f38532-fc29-4e8d-b8bd-ccff59d6cec9'
p2263
(dp2264
g3
S'1486896049'
p2265
sg5
g2263
sg6
g234
sg8
VAmber Stone
p2266
sg10
g11
ssS'd07afcfc-ae12-4dab-a1fa-a607318287e0'
p2267
(dp2268
g3
S'1486884387'
p2269
sg5
g2267
sg6
g744
sg8
VElizabeth Roman
p2270
sg10
g11
ssS'36dd50c1-c001-408c-b89a-aa5e80786121'
p2271
(dp2272
g3
S'1486901401'
p2273
sg5
g2271
sg6
g15
sg8
VMr. James Carney DDS
p2274
sg10
g11
ssS'eea18d5a-1405-499f-a88b-7c74d9e01431'
p2275
(dp2276
g3
S'1486877210'
p2277
sg5
g2275
sg6
g513
sg8
VMarie King
p2278
sg10
g11
ssS'd72b4fa0-d508-4019-b63e-793cb177383b'
p2279
(dp2280
g3
S'1486914411'
p2281
sg5
g2279
sg6
g35
sg8
VMary Alvarado
p2282
sg10
g11
ssS'd25fad3e-5156-4203-9b73-51c26cc2a4db'
p2283
(dp2284
g3
S'1486928027'
p2285
sg5
g2283
sg6
g7
sg8
VShawna Wilkinson
p2286
sg10
g11
ssS'd4f05371-2e8e-4aad-bf26-f84110f597bd'
p2287
(dp2288
g3
S'1486920926'
p2289
sg5
g2287
sg6
g513
sg8
VMatthew Stafford
p2290
sg10
g11
ssS'd5d12c28-c4f5-4151-8653-587f7efe2f76'
p2291
(dp2292
g3
S'1486912159'
p2293
sg5
g2291
sg6
g409
sg8
VMr. Richard Harris
p2294
sg10
g11
ssS'd540af28-caff-441f-a86b-bddeec203c5a'
p2295
(dp2296
g3
S'1486936397'
p2297
sg5
g2295
sg6
g249
sg8
VPaul Maldonado
p2298
sg10
g11
ssS'70ed776c-b6bd-4879-b4c4-acc7092a2734'
p2299
(dp2300
g3
S'1486937982'
p2301
sg5
g2299
sg6
g40
sg8
VHayley Jenkins
p2302
sg10
g11
ssS'98e989db-6279-4e08-b0d5-8ea31351d33f'
p2303
(dp2304
g3
S'1486880983'
p2305
sg5
g2303
sg6
g435
sg8
S'Jenkins Ltd'
p2306
sg10
g51
ssS'02ac99f7-debb-4ad5-94aa-3e6539f5015d'
p2307
(dp2308
g3
S'1486873154'
p2309
sg5
g2307
sg6
g104
sg8
VTroy Daniel
p2310
sg10
g11
ssS'adbdd249-a033-48fb-aeab-557cfc7ab313'
p2311
(dp2312
g3
S'1486896333'
p2313
sg5
g2311
sg6
g35
sg8
VTodd Lynch
p2314
sg10
g11
ssS'54f2ebf7-3cbd-4b8c-91ae-b9c147d089be'
p2315
(dp2316
g3
S'1486925862'
p2317
sg5
g2315
sg6
g379
sg8
VFrank Shaw
p2318
sg10
g11
ssS'ed495d14-c194-40c1-9a20-b1cfcab4bc58'
p2319
(dp2320
g3
S'1486874864'
p2321
sg5
g2319
sg6
g90
sg8
VMichelle Franklin
p2322
sg10
g11
ssS'b80bf56c-92d6-4797-822f-0b4add3ab1d8'
p2323
(dp2324
g3
S'1486921430'
p2325
sg5
g2323
sg6
g70
sg8
VDerek Winters
p2326
sg10
g11
ssS'1801891e-a316-439e-b6aa-5e22677305f0'
p2327
(dp2328
g3
S'1486923765'
p2329
sg5
g2327
sg6
g49
sg8
VMrs. Emily Thomas
p2330
sg10
g11
ssS'35e617e4-cf6d-4010-ba87-576bfcca336b'
p2331
(dp2332
g3
S'1486891942'
p2333
sg5
g2331
sg6
g135
sg8
VRonald Smith
p2334
sg10
g11
ssS'311d7059-e838-4562-bdd1-7af39fc6003c'
p2335
(dp2336
g3
S'1486940463'
p2337
sg5
g2335
sg6
g135
sg8
VDiane Gutierrez
p2338
sg10
g11
ssS'08e19f7a-2804-46b2-8f48-f08bb7bebd56'
p2339
(dp2340
g3
S'1486905434'
p2341
sg5
g2339
sg6
g135
sg8
VVictoria Frazier
p2342
sg10
g11
ssS'19caa3a8-63ec-4a46-9791-6bbcb491fa6b'
p2343
(dp2344
g3
S'1486882481'
p2345
sg5
g2343
sg6
g296
sg8
VDaniel Bell
p2346
sg10
g11
ssS'3b8b1608-ed09-4a36-9e35-fbad2fb9d930'
p2347
(dp2348
g3
S'1486933975'
p2349
sg5
g2347
sg6
g349
sg8
VAmber Taylor
p2350
sg10
g11
ssS'5d23dbad-ee55-4314-86f3-a759b3e7721b'
p2351
(dp2352
g3
S'1486937096'
p2353
sg5
g2351
sg6
g229
sg8
VMelanie Bolton
p2354
sg10
g11
ssS'1bd9b1a9-a348-4fc3-a5db-5629fc89fca9'
p2355
(dp2356
g3
S'1486867211'
p2357
sg5
g2355
sg6
g104
sg8
VRicky Trevino
p2358
sg10
g11
ssS'cc47dcd2-20bf-41ff-90d5-0ef1e9af481a'
p2359
(dp2360
g3
S'1486892180'
p2361
sg5
g2359
sg6
g435
sg8
VCarol Martin
p2362
sg10
g11
ssS'e4c1e7f9-d585-4dfa-966b-1fc94a311a43'
p2363
(dp2364
g3
S'1486935471'
p2365
sg5
g2363
sg6
g234
sg8
VJordan Bailey
p2366
sg10
g11
ssS'81f92fe0-eb49-46df-b0f1-5702c8129f5c'
p2367
(dp2368
g3
S'1486863078'
p2369
sg5
g2367
sg6
g90
sg8
VBarbara Long DVM
p2370
sg10
g11
ssS'76c5ee12-b477-4b25-bf88-4cec6ce8ba2b'
p2371
(dp2372
g3
S'1486907672'
p2373
sg5
g2371
sg6
g99
sg8
VLisa Velez
p2374
sg10
g11
ssS'2242f5a8-5c1c-4b29-b9b6-c531820d33fa'
p2375
(dp2376
g3
S'1486930396'
p2377
sg5
g2375
sg6
g60
sg8
VMichael Lee MD
p2378
sg10
g11
ssS'bb1c5c21-1007-4163-a17d-b1eb4d2541b8'
p2379
(dp2380
g3
S'1486886074'
p2381
sg5
g2379
sg6
g749
sg8
VTina Bailey
p2382
sg10
g11
ssS'1ff66c18-973b-4380-a28f-522be97d60c8'
p2383
(dp2384
g3
S'1486920331'
p2385
sg5
g2383
sg6
g75
sg8
VSarah Pacheco
p2386
sg10
g11
ssS'bb0e849f-88f8-4acd-b2bb-bd92b3b094bb'
p2387
(dp2388
g3
S'1486904164'
p2389
sg5
g2387
sg6
g229
sg8
VFrank Moore
p2390
sg10
g11
ssS'92aefff5-fad9-44bc-9b64-b321dd344852'
p2391
(dp2392
g3
S'1486870644'
p2393
sg5
g2391
sg6
g314
sg8
VNancy Jimenez DDS
p2394
sg10
g11
ssS'59dd51cf-7ef4-4b6b-a430-33b687eef4aa'
p2395
(dp2396
g3
S'1486893279'
p2397
sg5
g2395
sg6
g130
sg8
S'Kerr-Walker'
p2398
sg10
g51
ssS'd022eea3-cf15-4e37-ad51-85fe2fa7ba0c'
p2399
(dp2400
g3
S'1486928715'
p2401
sg5
g2399
sg6
g409
sg8
VKatelyn Harrison
p2402
sg10
g11
ssS'd2a72266-f769-4bbe-9349-6a2653beda0e'
p2403
(dp2404
g3
S'1486936227'
p2405
sg5
g2403
sg6
g60
sg8
VCassandra Mccoy
p2406
sg10
g11
ssS'00c517fc-e2b4-4c98-bc76-c9ea66716cb8'
p2407
(dp2408
g3
S'1486881084'
p2409
sg5
g2407
sg6
g379
sg8
VRichard Richards
p2410
sg10
g11
ssS'6014582e-9f35-458d-bfbb-ee252c393c67'
p2411
(dp2412
g3
S'1486914857'
p2413
sg5
g2411
sg6
g104
sg8
VRobert Burgess
p2414
sg10
g11
ssS'70247948-ce56-4748-a7d2-4c4fcba04135'
p2415
(dp2416
g3
S'1486885012'
p2417
sg5
g2415
sg6
g186
sg8
VDaniel Robinson
p2418
sg10
g11
ssS'5c3387bd-3c94-481a-a098-7557db401920'
p2419
(dp2420
g3
S'1486884209'
p2421
sg5
g2419
sg6
g744
sg8
VKevin Rich
p2422
sg10
g11
ssS'9224b766-02ac-4057-a42c-43dce9bd7ad7'
p2423
(dp2424
g3
S'1486916247'
p2425
sg5
g2423
sg6
g55
sg8
VChristina Peck
p2426
sg10
g11
ssS'ad760106-2520-4e27-a72e-0b72848f8f4a'
p2427
(dp2428
g3
S'1486921784'
p2429
sg5
g2427
sg6
g749
sg8
VThomas Martinez
p2430
sg10
g11
ssS'193ff09c-fd14-4989-9a29-f33a41ee6498'
p2431
(dp2432
g3
S'1486870778'
p2433
sg5
g2431
sg6
g40
sg8
VLisa Austin
p2434
sg10
g11
ssS'704860e2-7244-4426-b698-296c2d8a59f6'
p2435
(dp2436
g3
S'1486870859'
p2437
sg5
g2435
sg6
g7
sg8
S'Jones PLC'
p2438
sg10
g51
ssS'dc43f1d0-0820-49cd-942d-5ce1f71a8cd0'
p2439
(dp2440
g3
S'1486863501'
p2441
sg5
g2439
sg6
g379
sg8
VJeffery Robertson
p2442
sg10
g11
ssS'553dac28-105c-4113-8578-958a4d8f187b'
p2443
(dp2444
g3
S'1486888523'
p2445
sg5
g2443
sg6
g744
sg8
VSamuel Patel
p2446
sg10
g11
ssS'c3beeded-3e76-4830-b80e-73c41cf2bd69'
p2447
(dp2448
g3
S'1486869811'
p2449
sg5
g2447
sg6
g366
sg8
VKatie Miller
p2450
sg10
g11
ssS'725b40b6-577f-4b11-b058-c83af9742fac'
p2451
(dp2452
g3
S'1486864771'
p2453
sg5
g2451
sg6
g296
sg8
VSara Bullock
p2454
sg10
g11
ssS'a82296d9-53f8-40d8-aaf1-860230fff1a5'
p2455
(dp2456
g3
S'1486909858'
p2457
sg5
g2455
sg6
g305
sg8
VEric Day
p2458
sg10
g11
ssS'4374ca2f-57f9-4818-b6dd-e8fbb6195ed1'
p2459
(dp2460
g3
S'1486923347'
p2461
sg5
g2459
sg6
g30
sg8
VCourtney Clark
p2462
sg10
g11
ssS'a97aad87-d876-4b6e-91eb-061b067e856b'
p2463
(dp2464
g3
S'1486918252'
p2465
sg5
g2463
sg6
g296
sg8
VAlexis Hopkins
p2466
sg10
g11
ssS'417c5af5-2cef-4d62-8b42-f97ff42a0ea5'
p2467
(dp2468
g3
S'1486903372'
p2469
sg5
g2467
sg6
g244
sg8
VMichelle Adkins
p2470
sg10
g11
ssS'338bcdf6-3e34-4b92-b217-fa399a9cd7e1'
p2471
(dp2472
g3
S'1486920243'
p2473
sg5
g2471
sg6
g85
sg8
VHeather Hernandez
p2474
sg10
g11
ssS'1cfda933-b30e-45e1-9959-3a78c3f258e0'
p2475
(dp2476
g3
S'1486864524'
p2477
sg5
g2475
sg6
g314
sg8
VJeffrey Rodriguez
p2478
sg10
g11
ssS'f0ed9567-1413-4da2-a488-6218e481f9ea'
p2479
(dp2480
g3
S'1486863798'
p2481
sg5
g2479
sg6
g191
sg8
VSteven Hammond
p2482
sg10
g11
ssS'daefb464-6433-4f75-bc13-24dd6a3cab50'
p2483
(dp2484
g3
S'1486870464'
p2485
sg5
g2483
sg6
g296
sg8
VKristopher Russell
p2486
sg10
g11
ssS'b37a5051-20c8-435a-85bc-603a8e9d9fff'
p2487
(dp2488
g3
S'1486866806'
p2489
sg5
g2487
sg6
g165
sg8
VMichael Dixon
p2490
sg10
g11
ssS'5898db31-49a2-4af2-b322-b3863af5aace'
p2491
(dp2492
g3
S'1486920125'
p2493
sg5
g2491
sg6
g20
sg8
VJessica Smith
p2494
sg10
g11
ssS'aa83a9b4-7f4c-4684-894e-d939d8a70d22'
p2495
(dp2496
g3
S'1486916666'
p2497
sg5
g2495
sg6
g409
sg8
VRyan Whitaker
p2498
sg10
g11
ssS'3cab96f1-63ad-4109-abd3-2c5c4a5c169f'
p2499
(dp2500
g3
S'1486889932'
p2501
sg5
g2499
sg6
g65
sg8
VSamuel Payne
p2502
sg10
g11
ssS'7c1d42f8-17cd-4369-8f68-b0d8adb1c0a1'
p2503
(dp2504
g3
S'1486907276'
p2505
sg5
g2503
sg6
g80
sg8
VMatthew Barnes
p2506
sg10
g11
ssS'f285ec1b-ea8a-48c8-b677-1d796cbf3130'
p2507
(dp2508
g3
S'1486875886'
p2509
sg5
g2507
sg6
g239
sg8
VSarah Thompson
p2510
sg10
g11
ssS'069ffb83-3f14-4b4b-9534-97d9473fad0e'
p2511
(dp2512
g3
S'1486895725'
p2513
sg5
g2511
sg6
g749
sg8
VAshley Jones
p2514
sg10
g11
ssS'f25b0b1e-5b07-44ee-81a9-785a9ece8df2'
p2515
(dp2516
g3
S'1486896442'
p2517
sg5
g2515
sg6
g530
sg8
VJesse Harrison
p2518
sg10
g11
ssS'86c005ff-8e80-4577-8e73-c80d84e43eb3'
p2519
(dp2520
g3
S'1486858930'
p2521
sg5
g2519
sg6
g496
sg8
VMolly Jones
p2522
sg10
g11
ssS'ec150cb5-d385-432b-833b-bb38ebe40c64'
p2523
(dp2524
g3
S'1486940555'
p2525
sg5
g2523
sg6
g186
sg8
VLisa Powers
p2526
sg10
g11
ssS'bde6fe2f-476b-4035-918d-14760d4d8b64'
p2527
(dp2528
g3
S'1486935621'
p2529
sg5
g2527
sg6
g344
sg8
VTammy Lucas
p2530
sg10
g11
ssS'bd4c72e7-3e41-496b-9b57-46d8d80e5765'
p2531
(dp2532
g3
S'1486893357'
p2533
sg5
g2531
sg6
g191
sg8
VSusan Rice
p2534
sg10
g11
ssS'22913ded-7596-4ee1-8764-1189a2e1079f'
p2535
(dp2536
g3
S'1486867449'
p2537
sg5
g2535
sg6
g404
sg8
VScott Ramos
p2538
sg10
g11
ssS'56f56107-37b9-4e13-ba32-33341e1a2a55'
p2539
(dp2540
g3
S'1486891196'
p2541
sg5
g2539
sg6
g404
sg8
VLaura Russo
p2542
sg10
g11
ssS'352ea6fc-8712-4f21-990d-a7eb99927aa4'
p2543
(dp2544
g3
S'1486877283'
p2545
sg5
g2543
sg6
g165
sg8
VAllen Perkins
p2546
sg10
g11
ssS'4c1697bd-2e50-40d8-b66f-6c67656fec2e'
p2547
(dp2548
g3
S'1486941469'
p2549
sg5
g2547
sg6
g7
sg8
VWillie Norris
p2550
sg10
g11
ssS'eebb6a61-82af-4b3e-9975-6fb5cc307d61'
p2551
(dp2552
g3
S'1486910744'
p2553
sg5
g2551
sg6
g249
sg8
VAaron Collins
p2554
sg10
g11
ssS'f83b999f-3605-4429-8c6e-da13bdc8cd8d'
p2555
(dp2556
g3
S'1486935242'
p2557
sg5
g2555
sg6
g80
sg8
VDawn Lawrence
p2558
sg10
g11
ssS'51f8092a-d39d-4b45-b443-c270718a742b'
p2559
(dp2560
g3
S'1486931474'
p2561
sg5
g2559
sg6
g305
sg8
VMatthew Barrett
p2562
sg10
g11
ssS'b625a41e-47f8-466c-9961-018576792648'
p2563
(dp2564
g3
S'1486938131'
p2565
sg5
g2563
sg6
g305
sg8
VRobert Watts
p2566
sg10
g11
ssS'b5da10aa-7c81-48a1-a5b2-0e40b3a71afb'
p2567
(dp2568
g3
S'1486927275'
p2569
sg5
g2567
sg6
g305
sg8
VRyan Johnson
p2570
sg10
g11
ssS'6d484103-392d-419c-9a51-1e43a53f1b78'
p2571
(dp2572
g3
S'1486923994'
p2573
sg5
g2571
sg6
g30
sg8
VRandall Gibson
p2574
sg10
g11
ssS'0f303922-d2cd-4ffc-b322-d80ff31ed73a'
p2575
(dp2576
g3
S'1486915444'
p2577
sg5
g2575
sg6
g430
sg8
VChristopher West
p2578
sg10
g11
ssS'9a4d43ee-f1f8-4d63-be23-f99518055e92'
p2579
(dp2580
g3
S'1486870812'
p2581
sg5
g2579
sg6
g496
sg8
VDorothy King
p2582
sg10
g11
ssS'9f497049-ba2b-4ebf-934b-9a83d294c894'
p2583
(dp2584
g3
S'1486889178'
p2585
sg5
g2583
sg6
g152
sg8
VStacey Lynch
p2586
sg10
g11
ssS'6e490311-8893-4f76-88bc-1f3cd523051f'
p2587
(dp2588
g3
S'1486915676'
p2589
sg5
g2587
sg6
g409
sg8
S'Brown-Bradley'
p2590
sg10
g51
ssS'1196dfa1-1f3f-4f2f-822a-873095925b96'
p2591
(dp2592
g3
S'1486913600'
p2593
sg5
g2591
sg6
g749
sg8
VAmy Montes
p2594
sg10
g11
ssS'608b0ac2-99f8-40b5-8bca-eed46cd40047'
p2595
(dp2596
g3
S'1486918636'
p2597
sg5
g2595
sg6
g104
sg8
VDavid Cole
p2598
sg10
g11
ssS'f8968a06-e9a7-46b9-a408-d3ef7d628f47'
p2599
(dp2600
g3
S'1486913992'
p2601
sg5
g2599
sg6
g65
sg8
VAlex Smith
p2602
sg10
g11
ssS'3e64b7b4-09ab-4cae-8684-a89b65b44945'
p2603
(dp2604
g3
S'1486931532'
p2605
sg5
g2603
sg6
g20
sg8
VKatelyn Lopez PhD
p2606
sg10
g11
ssS'8eb4625f-12b2-4c35-8808-8a215ec33dba'
p2607
(dp2608
g3
S'1486884297'
p2609
sg5
g2607
sg6
g435
sg8
VGabriel Diaz
p2610
sg10
g11
ssS'96d660ba-c8a5-4dd3-b7d7-ff0d0fbed529'
p2611
(dp2612
g3
S'1486939606'
p2613
sg5
g2611
sg6
g85
sg8
VBrendan Figueroa
p2614
sg10
g11
ssS'f6ff914e-e4d5-4c64-8c8f-284522f5d97d'
p2615
(dp2616
g3
S'1486875023'
p2617
sg5
g2615
sg6
g7
sg8
VBryce Moore DVM
p2618
sg10
g11
ssS'd607ff30-aa17-43ba-84c5-4175ace2fcf7'
p2619
(dp2620
g3
S'1486919116'
p2621
sg5
g2619
sg6
g117
sg8
VMatthew Ramos
p2622
sg10
g11
ssS'678b3861-5f3a-4e11-8825-a5f0c7ea2262'
p2623
(dp2624
g3
S'1486900633'
p2625
sg5
g2623
sg6
g99
sg8
VJoseph French
p2626
sg10
g11
ssS'4f6b4788-788c-4e85-b62f-b5a9724d6ee6'
p2627
(dp2628
g3
S'1486871376'
p2629
sg5
g2627
sg6
g85
sg8
S'Levy Boyd and Schaefer'
p2630
sg10
g51
ssS'1f31603b-9b60-47d6-820d-c9a4350ebc23'
p2631
(dp2632
g3
S'1486927187'
p2633
sg5
g2631
sg6
g60
sg8
VRobert Hall
p2634
sg10
g11
ssS'846adc85-40f7-4aaa-b698-a3908b6b4172'
p2635
(dp2636
g3
S'1486883903'
p2637
sg5
g2635
sg6
g296
sg8
VAndrew Lewis
p2638
sg10
g11
ssS'e940094e-a9eb-481c-a666-e9bdc59bad3b'
p2639
(dp2640
g3
S'1486909979'
p2641
sg5
g2639
sg6
g611
sg8
VMichael Moran
p2642
sg10
g11
ssS'7f093028-9e02-4821-841c-5e87e59b9824'
p2643
(dp2644
g3
S'1486896173'
p2645
sg5
g2643
sg6
g239
sg8
VMary Mann
p2646
sg10
g11
ssS'cb105c1f-0e04-4ae7-a847-fcd2b4a7bede'
p2647
(dp2648
g3
S'1486921004'
p2649
sg5
g2647
sg6
g611
sg8
VSteven Noble
p2650
sg10
g11
ssS'a9253767-6b16-453b-a6f7-f03f75fd0dee'
p2651
(dp2652
g3
S'1486914072'
p2653
sg5
g2651
sg6
g55
sg8
S'Hull and Sons'
p2654
sg10
g51
ssS'f0685317-8ea3-4170-afec-29582d79ac5f'
p2655
(dp2656
g3
S'1486902649'
p2657
sg5
g2655
sg6
g611
sg8
VJillian Reid
p2658
sg10
g11
ssS'0181b06f-a27e-4c2d-9aad-354ca5181f79'
p2659
(dp2660
g3
S'1486903193'
p2661
sg5
g2659
sg6
g104
sg8
VKelly Browning
p2662
sg10
g11
ssS'c40b858c-55eb-4d3b-81e8-5b5ba077356d'
p2663
(dp2664
g3
S'1486862428'
p2665
sg5
g2663
sg6
g749
sg8
VLarry Parsons
p2666
sg10
g11
ssS'64ce550a-23de-4576-b225-071b5734f54a'
p2667
(dp2668
g3
S'1486866761'
p2669
sg5
g2667
sg6
g99
sg8
VJaime Jones
p2670
sg10
g11
ssS'0d3dbdff-d90f-48e2-a8da-379e1dc75533'
p2671
(dp2672
g3
S'1486920139'
p2673
sg5
g2671
sg6
g409
sg8
VNatalie Jones
p2674
sg10
g11
ssS'ac5fa66f-fff1-45fd-a4a1-e3761ad83fd6'
p2675
(dp2676
g3
S'1486903713'
p2677
sg5
g2675
sg6
g15
sg8
VKelsey Pacheco
p2678
sg10
g11
ssS'c39a6503-9b7e-4f0c-9a67-123dd6c6d5fa'
p2679
(dp2680
g3
S'1486895362'
p2681
sg5
g2679
sg6
g409
sg8
VKathleen Walter
p2682
sg10
g11
ssS'67cdba25-3da3-48d0-b8fb-e9f9a0a02a0e'
p2683
(dp2684
g3
S'1486880107'
p2685
sg5
g2683
sg6
g90
sg8
VTimothy Adams
p2686
sg10
g11
ssS'b3f0fd2f-6ccd-4c27-9740-a5b8518dc019'
p2687
(dp2688
g3
S'1486888417'
p2689
sg5
g2687
sg6
g99
sg8
VLaura Hamilton
p2690
sg10
g11
ssS'5a3936cb-f772-4bfe-b4c1-b53efbf09835'
p2691
(dp2692
g3
S'1486907187'
p2693
sg5
g2691
sg6
g513
sg8
VDalton Landry
p2694
sg10
g11
ssS'a2010fe2-c24a-496d-bcd9-c078fa585ba2'
p2695
(dp2696
g3
S'1486943737'
p2697
sg5
g2695
sg6
g744
sg8
VElizabeth Williams DDS
p2698
sg10
g11
ssS'e5f08a30-c4d9-48ba-b04a-45d2f81babce'
p2699
(dp2700
g3
S'1486870328'
p2701
sg5
g2699
sg6
g30
sg8
S'Johns Flores and Savage'
p2702
sg10
g51
ssS'48068128-7d91-4f93-b0e9-ab793ff3c907'
p2703
(dp2704
g3
S'1486892719'
p2705
sg5
g2703
sg6
g70
sg8
VRoy Campbell
p2706
sg10
g11
ssS'82c03a6e-b15a-4997-8ded-93da9151ca80'
p2707
(dp2708
g3
S'1486934926'
p2709
sg5
g2707
sg6
g744
sg8
VCynthia Jones
p2710
sg10
g11
ssS'1bcf2384-372f-4b5b-b3ca-0326257e9c79'
p2711
(dp2712
g3
S'1486888260'
p2713
sg5
g2711
sg6
g60
sg8
VBetty Carter
p2714
sg10
g11
ssS'15ec6f75-7f4a-400d-8b3f-462fadafdf03'
p2715
(dp2716
g3
S'1486930054'
p2717
sg5
g2715
sg6
g208
sg8
VDawn Jimenez
p2718
sg10
g11
ssS'9d209467-fb9f-44b2-be9d-5bd8c26a904e'
p2719
(dp2720
g3
S'1486902446'
p2721
sg5
g2719
sg6
g435
sg8
VKimberly Wilkerson
p2722
sg10
g11
ssS'fa914c22-4f4c-41ab-95df-6f33c43fcc4a'
p2723
(dp2724
g3
S'1486906281'
p2725
sg5
g2723
sg6
g55
sg8
VLauren Rice
p2726
sg10
g11
ssS'44d761bc-eeb7-4d17-8a3e-1b2d9f338b82'
p2727
(dp2728
g3
S'1486939618'
p2729
sg5
g2727
sg6
g234
sg8
VAmy Neal
p2730
sg10
g11
ssS'7e5a55ac-aa8d-4589-9b5e-4b4e65ba47b1'
p2731
(dp2732
g3
S'1486923696'
p2733
sg5
g2731
sg6
g85
sg8
VConnie Perkins
p2734
sg10
g11
ssS'24526284-ae48-4d1b-9a8b-ebc470197ce3'
p2735
(dp2736
g3
S'1486862051'
p2737
sg5
g2735
sg6
g15
sg8
VDaniel Meyer
p2738
sg10
g11
ssS'e6f356bb-5a0c-4347-af62-8dff3cd5877f'
p2739
(dp2740
g3
S'1486861171'
p2741
sg5
g2739
sg6
g287
sg8
VChelsea Sparks
p2742
sg10
g11
ssS'd2c31b0e-2377-4ba4-b876-d098bdf744ca'
p2743
(dp2744
g3
S'1486915233'
p2745
sg5
g2743
sg6
g287
sg8
S'Kane Ltd'
p2746
sg10
g51
ssS'4e28edd3-7fe7-45d3-b9c5-73b94807d0b5'
p2747
(dp2748
g3
S'1486925860'
p2749
sg5
g2747
sg6
g296
sg8
VChristy Robinson PhD
p2750
sg10
g11
ssS'a204493a-7745-4bb6-880f-b12c346e5de0'
p2751
(dp2752
g3
S'1486897863'
p2753
sg5
g2751
sg6
g15
sg8
VRita Vincent
p2754
sg10
g11
ssS'9524055b-2d5d-480a-8b76-bfc438937738'
p2755
(dp2756
g3
S'1486920323'
p2757
sg5
g2755
sg6
g55
sg8
VBryan Smith PhD
p2758
sg10
g11
ssS'eee60522-703f-491e-800c-f760826166ab'
p2759
(dp2760
g3
S'1486888373'
p2761
sg5
g2759
sg6
g496
sg8
VHeidi Lewis
p2762
sg10
g11
ssS'f0a3480d-bced-4f5b-8b0c-f16106932bb6'
p2763
(dp2764
g3
S'1486933199'
p2765
sg5
g2763
sg6
g15
sg8
VMadeline Liu
p2766
sg10
g11
ssS'c940e23b-735c-4c2c-b96d-2edc042c4b37'
p2767
(dp2768
g3
S'1486887062'
p2769
sg5
g2767
sg6
g99
sg8
VJoshua Fox
p2770
sg10
g11
ssS'5ced3bd9-378a-44c0-8d6e-8253eb5d8a8a'
p2771
(dp2772
g3
S'1486869444'
p2773
sg5
g2771
sg6
g60
sg8
VDarrell Welch
p2774
sg10
g11
ssS'539dba75-e034-473a-b3f5-f3e1ff115e4b'
p2775
(dp2776
g3
S'1486932203'
p2777
sg5
g2775
sg6
g314
sg8
VMichele Calderon
p2778
sg10
g11
ssS'd6615e9e-f36e-41a8-84e3-b89a95965bbf'
p2779
(dp2780
g3
S'1486905520'
p2781
sg5
g2779
sg6
g35
sg8
VJeffrey Hall
p2782
sg10
g11
ssS'cdd67a81-de84-4351-ae61-439891d433dc'
p2783
(dp2784
g3
S'1486884809'
p2785
sg5
g2783
sg6
g135
sg8
VCynthia Miller
p2786
sg10
g11
ssS'61e95341-d47a-404e-a078-c67b6b46e7a7'
p2787
(dp2788
g3
S'1486888695'
p2789
sg5
g2787
sg6
g278
sg8
VTheresa Sullivan
p2790
sg10
g11
ssS'd932c54a-e8c9-4a44-88d6-eeffcf76342a'
p2791
(dp2792
g3
S'1486902914'
p2793
sg5
g2791
sg6
g40
sg8
VMatthew Morales
p2794
sg10
g11
ssS'edf81842-b5cc-4ec0-8b55-ecd9b60aa82a'
p2795
(dp2796
g3
S'1486860463'
p2797
sg5
g2795
sg6
g70
sg8
VEdward Thompson
p2798
sg10
g11
ssS'441b2d0c-4626-4c74-8b8c-593486d7040c'
p2799
(dp2800
g3
S'1486907805'
p2801
sg5
g2799
sg6
g344
sg8
VRonnie Thomas
p2802
sg10
g11
ssS'1e66df58-600e-45d3-983f-adee26d9bf0f'
p2803
(dp2804
g3
S'1486938762'
p2805
sg5
g2803
sg6
g20
sg8
VSean Proctor
p2806
sg10
g11
ssS'f4a67bd6-d992-4e89-a96f-b69db82a743d'
p2807
(dp2808
g3
S'1486936839'
p2809
sg5
g2807
sg6
g152
sg8
VJames Lambert
p2810
sg10
g11
ssS'36d83c29-708e-4d5e-9aae-d6423a84df1b'
p2811
(dp2812
g3
S'1486866577'
p2813
sg5
g2811
sg6
g208
sg8
VGregory Frye
p2814
sg10
g11
ssS'47481d7d-60f6-4103-ad40-0fa680ce5013'
p2815
(dp2816
g3
S'1486889520'
p2817
sg5
g2815
sg6
g25
sg8
VAllison Anderson
p2818
sg10
g11
ssS'1fe8d14e-756b-423d-be90-d7b2098c65b0'
p2819
(dp2820
g3
S'1486891811'
p2821
sg5
g2819
sg6
g344
sg8
VBilly Sweeney
p2822
sg10
g11
ssS'53a7d110-6851-40c2-bbe3-2318f5f60ed0'
p2823
(dp2824
g3
S'1486931145'
p2825
sg5
g2823
sg6
g35
sg8
VKayla Dunn
p2826
sg10
g11
ssS'c644f92f-3f21-46de-a003-e220a2b8a653'
p2827
(dp2828
g3
S'1486944877'
p2829
sg5
g2827
sg6
g749
sg8
VLisa Alvarado
p2830
sg10
g11
ssS'1105832d-65a9-4700-b2c4-c53a92354f10'
p2831
(dp2832
g3
S'1486928506'
p2833
sg5
g2831
sg6
g35
sg8
VWanda Moyer
p2834
sg10
g11
ssS'cfffc6fc-86f3-461a-9ce5-bef998cd94d6'
p2835
(dp2836
g3
S'1486928092'
p2837
sg5
g2835
sg6
g55
sg8
VAmber Lopez
p2838
sg10
g11
ssS'bc097994-c853-436c-ac51-1693875ad149'
p2839
(dp2840
g3
S'1486932504'
p2841
sg5
g2839
sg6
g305
sg8
VMark Terry
p2842
sg10
g11
ssS'3bad4a1c-d61d-4021-8aa7-eb0ed7ec522d'
p2843
(dp2844
g3
S'1486908746'
p2845
sg5
g2843
sg6
g379
sg8
VRobyn Knight
p2846
sg10
g11
ssS'527bbdbb-ef6b-41b6-8dbd-cc0cd61f4cdf'
p2847
(dp2848
g3
S'1486865501'
p2849
sg5
g2847
sg6
g49
sg8
VJerry Anderson
p2850
sg10
g11
ssS'61df4bfc-edde-4364-809d-c8eb9abb51e5'
p2851
(dp2852
g3
S'1486891468'
p2853
sg5
g2851
sg6
g186
sg8
VAdriana Chen
p2854
sg10
g11
ssS'eac7d811-404c-4993-8bc9-d327b454c5a6'
p2855
(dp2856
g3
S'1486876427'
p2857
sg5
g2855
sg6
g85
sg8
VCharles Banks
p2858
sg10
g11
ssS'bf942755-18b4-41ec-a8c5-429a4d568e75'
p2859
(dp2860
g3
S'1486877019'
p2861
sg5
g2859
sg6
g404
sg8
VOscar King
p2862
sg10
g11
ssS'8f8e5fe2-7e8f-4d85-bccd-949d15e64331'
p2863
(dp2864
g3
S'1486925294'
p2865
sg5
g2863
sg6
g20
sg8
VSamantha Lee
p2866
sg10
g11
ssS'9766599c-787b-466d-b274-bf90a1d80126'
p2867
(dp2868
g3
S'1486932836'
p2869
sg5
g2867
sg6
g152
sg8
VErika Brandt
p2870
sg10
g11
ssS'e3a7a10f-5f61-4cb5-9d99-fc3c6fa3b3b5'
p2871
(dp2872
g3
S'1486873353'
p2873
sg5
g2871
sg6
g349
sg8
VJennifer Tyler
p2874
sg10
g11
ssS'62afaf00-9459-437e-8738-e2b71047968a'
p2875
(dp2876
g3
S'1486907931'
p2877
sg5
g2875
sg6
g744
sg8
VMichelle Luna
p2878
sg10
g11
ssS'7ba05996-b09f-4ef8-bab7-9b13be7b5ceb'
p2879
(dp2880
g3
S'1486880764'
p2881
sg5
g2879
sg6
g15
sg8
VMichelle English
p2882
sg10
g11
ssS'f005c499-f534-462d-a500-bdfa30ceed9d'
p2883
(dp2884
g3
S'1486910435'
p2885
sg5
g2883
sg6
g430
sg8
VDeanna Davis
p2886
sg10
g11
ssS'18ea21c2-ba68-45b3-a2f1-40286b846355'
p2887
(dp2888
g3
S'1486917076'
p2889
sg5
g2887
sg6
g744
sg8
VJessica Guzman
p2890
sg10
g11
ssS'0f725302-ea89-4254-9d6c-df4d5d746e0f'
p2891
(dp2892
g3
S'1486882348'
p2893
sg5
g2891
sg6
g327
sg8
VRebecca Fisher
p2894
sg10
g11
ssS'54b4fc1e-531c-466a-8b04-13ba2fe6151c'
p2895
(dp2896
g3
S'1486885390'
p2897
sg5
g2895
sg6
g435
sg8
S'Spencer Ltd'
p2898
sg10
g51
ssS'5bf24f6a-5062-4e6f-a8d5-e34f4e764317'
p2899
(dp2900
g3
S'1486862172'
p2901
sg5
g2899
sg6
g25
sg8
VBrandon Dunn
p2902
sg10
g11
ssS'd09900b1-fde1-4904-92f6-c9a42c67cb3c'
p2903
(dp2904
g3
S'1486915539'
p2905
sg5
g2903
sg6
g80
sg8
VEmily Kelley
p2906
sg10
g11
ssS'ae7d7906-1630-4067-b9c9-c10b8749faf2'
p2907
(dp2908
g3
S'1486918325'
p2909
sg5
g2907
sg6
g513
sg8
VTimothy Reeves
p2910
sg10
g11
ssS'0d8bdb18-9f6f-49b6-a4e0-4ac029e0dcb4'
p2911
(dp2912
g3
S'1486924479'
p2913
sg5
g2911
sg6
g249
sg8
VKimberly Beltran
p2914
sg10
g11
ssS'69d4fda5-12a5-4985-b371-cd897894d492'
p2915
(dp2916
g3
S'1486863810'
p2917
sg5
g2915
sg6
g15
sg8
VJessica Cortez
p2918
sg10
g11
ssS'ee01c2f0-7698-483e-8ccf-02681e8e12fc'
p2919
(dp2920
g3
S'1486935958'
p2921
sg5
g2919
sg6
g379
sg8
VLauren Mcdowell
p2922
sg10
g11
ssS'd1cb641c-bb4f-4d03-a9cb-ccf71c20224a'
p2923
(dp2924
g3
S'1486942819'
p2925
sg5
g2923
sg6
g20
sg8
VJeffrey Martinez
p2926
sg10
g11
ssS'460d9b35-9488-4880-ae0f-008354e96053'
p2927
(dp2928
g3
S'1486888000'
p2929
sg5
g2927
sg6
g530
sg8
VDustin Wilson
p2930
sg10
g11
ssS'eaf197d8-6ebe-43af-be08-f177f78d683c'
p2931
(dp2932
g3
S'1486905552'
p2933
sg5
g2931
sg6
g7
sg8
VCrystal Reid
p2934
sg10
g11
ssS'6a9ec59b-f855-455f-8394-9d5a28e204fc'
p2935
(dp2936
g3
S'1486881922'
p2937
sg5
g2935
sg6
g90
sg8
VSara Montes
p2938
sg10
g11
ssS'5504ea7e-7ee8-4811-a4cc-26f459fe6eb9'
p2939
(dp2940
g3
S'1486874414'
p2941
sg5
g2939
sg6
g496
sg8
VSarah Johnson
p2942
sg10
g11
ssS'f3e37481-9236-420b-b39b-1f341dd1583f'
p2943
(dp2944
g3
S'1486938055'
p2945
sg5
g2943
sg6
g7
sg8
VJohn Walker
p2946
sg10
g11
ssS'29178251-5409-42de-bd89-6b7a98a9bda4'
p2947
(dp2948
g3
S'1486879440'
p2949
sg5
g2947
sg6
g99
sg8
VAndrew Thompson
p2950
sg10
g11
ssS'6ee3bd85-6b4e-4b08-88ff-cfc0cb55a39f'
p2951
(dp2952
g3
S'1486874075'
p2953
sg5
g2951
sg6
g749
sg8
VVictor Bass
p2954
sg10
g11
ssS'41a8a0c8-4d17-421d-9d3e-1da53ef42c00'
p2955
(dp2956
g3
S'1486890868'
p2957
sg5
g2955
sg6
g191
sg8
VMichael Alvarez
p2958
sg10
g11
ssS'e9f3237a-960c-4c2c-b1a2-50ccc1db74b2'
p2959
(dp2960
g3
S'1486938429'
p2961
sg5
g2959
sg6
g15
sg8
VJon Brown
p2962
sg10
g11
ssS'55a4237f-ede0-4536-a7a6-1b4f8f568ec9'
p2963
(dp2964
g3
S'1486882560'
p2965
sg5
g2963
sg6
g327
sg8
VJessica Lee
p2966
sg10
g11
ssS'75daa687-ae33-41a0-9f58-c186099d5e1a'
p2967
(dp2968
g3
S'1486880399'
p2969
sg5
g2967
sg6
g287
sg8
VLaura Rodriguez
p2970
sg10
g11
ssS'b84e6e87-8b58-4b87-8d22-1d739e17bf99'
p2971
(dp2972
g3
S'1486880472'
p2973
sg5
g2971
sg6
g75
sg8
VDavid Morgan
p2974
sg10
g11
ssS'7004b9a6-d08b-4c72-aec6-51f9bc13a164'
p2975
(dp2976
g3
S'1486878201'
p2977
sg5
g2975
sg6
g530
sg8
VPeter Smith
p2978
sg10
g11
ssS'fb5411fd-38df-4422-8e7e-ed3a39c6b8f4'
p2979
(dp2980
g3
S'1486871712'
p2981
sg5
g2979
sg6
g296
sg8
VKenneth Ross
p2982
sg10
g11
ssS'd2c604cb-e335-473c-9d36-2fdaa7fdbe6e'
p2983
(dp2984
g3
S'1486861961'
p2985
sg5
g2983
sg6
g15
sg8
VAmanda Johnson
p2986
sg10
g11
ssS'72ab0b4f-ee7f-4928-9233-53bb2adbb0c6'
p2987
(dp2988
g3
S'1486862793'
p2989
sg5
g2987
sg6
g278
sg8
VRegina Watson
p2990
sg10
g11
ssS'185a22d7-6e33-4150-8ce5-dbba88cc4eb9'
p2991
(dp2992
g3
S'1486910132'
p2993
sg5
g2991
sg6
g165
sg8
VHannah Clark
p2994
sg10
g11
ssS'6f0b0804-3b6d-42ec-962b-131c9ac5ec90'
p2995
(dp2996
g3
S'1486899485'
p2997
sg5
g2995
sg6
g327
sg8
VJohnny Johnson
p2998
sg10
g11
ssS'1602031e-03de-45df-a0e9-9cbf21dc5e67'
p2999
(dp3000
g3
S'1486937472'
p3001
sg5
g2999
sg6
g7
sg8
VAllen Moore
p3002
sg10
g11
ssS'ae70b5b6-63d0-4fc6-9f50-e29007941e1b'
p3003
(dp3004
g3
S'1486916539'
p3005
sg5
g3003
sg6
g229
sg8
VRobert Burke
p3006
sg10
g11
ssS'705e35e8-3b7d-483e-adf3-f3e232bbd8fb'
p3007
(dp3008
g3
S'1486890474'
p3009
sg5
g3007
sg6
g327
sg8
VMrs. Ashley Davis
p3010
sg10
g11
ssS'd6219ba9-f776-47aa-a3ff-63d2fc4019c8'
p3011
(dp3012
g3
S'1486916052'
p3013
sg5
g3011
sg6
g20
sg8
VJonathan Arnold
p3014
sg10
g11
ssS'94d2af6d-6274-464a-a0c9-6eb7ef22b859'
p3015
(dp3016
g3
S'1486871753'
p3017
sg5
g3015
sg6
g496
sg8
VErin Moon
p3018
sg10
g11
ssS'2c8d2a18-dcbf-4b4b-86d2-c841ac08174b'
p3019
(dp3020
g3
S'1486899424'
p3021
sg5
g3019
sg6
g744
sg8
VRichard Baldwin
p3022
sg10
g11
ssS'64e1235f-a497-4a41-a7a3-cd39ef52520b'
p3023
(dp3024
g3
S'1486859790'
p3025
sg5
g3023
sg6
g379
sg8
VMrs. Yesenia Morales MD
p3026
sg10
g11
ssS'bb3bebed-3571-4d7b-b2aa-7a9ca9acd408'
p3027
(dp3028
g3
S'1486894186'
p3029
sg5
g3027
sg6
g35
sg8
VAdam Frederick
p3030
sg10
g11
ssS'085e8f6c-58f6-4745-aafe-dcdf7ad194c9'
p3031
(dp3032
g3
S'1486905212'
p3033
sg5
g3031
sg6
g165
sg8
VZachary Bauer
p3034
sg10
g11
ssS'f6bffd84-b4a9-4ba1-b222-3c51015056e2'
p3035
(dp3036
g3
S'1486905865'
p3037
sg5
g3035
sg6
g186
sg8
VChristopher Burke
p3038
sg10
g11
ssS'ca34593f-66bf-45d8-94e1-67b4f5b7b3be'
p3039
(dp3040
g3
S'1486904210'
p3041
sg5
g3039
sg6
g234
sg8
VJuan Evans
p3042
sg10
g11
ssS'1184725c-871e-4dab-9b32-f88945a321f8'
p3043
(dp3044
g3
S'1486872804'
p3045
sg5
g3043
sg6
g530
sg8
VSarah Johnson
p3046
sg10
g11
ssS'5139dd19-95d5-42d4-b22b-f2a32713ac5f'
p3047
(dp3048
g3
S'1486940194'
p3049
sg5
g3047
sg6
g430
sg8
VMegan Stevens
p3050
sg10
g11
ssS'49e0b114-32a9-4a5b-b9a6-67914564d052'
p3051
(dp3052
g3
S'1486909792'
p3053
sg5
g3051
sg6
g744
sg8
VChelsea Smith
p3054
sg10
g11
ssS'f6d8c012-5f49-41f3-a037-a6aacf402c10'
p3055
(dp3056
g3
S'1486869502'
p3057
sg5
g3055
sg6
g60
sg8
VMark Kelly
p3058
sg10
g11
ssS'ece28384-8832-4d80-9238-7f2e2047a51a'
p3059
(dp3060
g3
S'1486862049'
p3061
sg5
g3059
sg6
g75
sg8
VTerry Orr
p3062
sg10
g11
ssS'98d1a690-b310-4d5a-adc2-e7ed4ee8fc6a'
p3063
(dp3064
g3
S'1486889945'
p3065
sg5
g3063
sg6
g366
sg8
VRichard Crosby
p3066
sg10
g11
ssS'56116809-50d7-4022-8bee-48d7432d47de'
p3067
(dp3068
g3
S'1486904471'
p3069
sg5
g3067
sg6
g130
sg8
VMrs. Kathleen Castro
p3070
sg10
g11
ssS'66cfa224-1ccc-4d5d-954a-0903f482155d'
p3071
(dp3072
g3
S'1486914178'
p3073
sg5
g3071
sg6
g229
sg8
S'Mcdonald-Potter'
p3074
sg10
g51
ssS'ae10b170-a327-463d-882f-55408fb47d62'
p3075
(dp3076
g3
S'1486941578'
p3077
sg5
g3075
sg6
g744
sg8
S'Green-Smith'
p3078
sg10
g51
ssS'16142f0f-1620-4895-8bbd-e028d7b5847b'
p3079
(dp3080
g3
S'1486926653'
p3081
sg5
g3079
sg6
g186
sg8
VDevon Hall
p3082
sg10
g11
ssS'a97b464f-79fa-4fee-b31c-b89a9b3d8a2b'
p3083
(dp3084
g3
S'1486878595'
p3085
sg5
g3083
sg6
g186
sg8
VNicholas Hill
p3086
sg10
g11
ssS'803d7e77-ea5d-4993-94fd-eb5fdfffaa66'
p3087
(dp3088
g3
S'1486899142'
p3089
sg5
g3087
sg6
g104
sg8
VShannon Davis
p3090
sg10
g11
ssS'2215587e-1492-4c1f-9729-ecb26e04e574'
p3091
(dp3092
g3
S'1486922625'
p3093
sg5
g3091
sg6
g229
sg8
VMatthew Martinez
p3094
sg10
g11
ssS'f732e803-2b6f-4a36-8445-ca13574cc337'
p3095
(dp3096
g3
S'1486884366'
p3097
sg5
g3095
sg6
g409
sg8
VRaymond Chavez
p3098
sg10
g11
ssS'c9d68b82-c1f2-499c-8174-7e5f7cc84fa4'
p3099
(dp3100
g3
S'1486893154'
p3101
sg5
g3099
sg6
g239
sg8
VMary Johnson
p3102
sg10
g11
ssS'0a2a7642-64fd-4865-8f89-a0bd4efd9990'
p3103
(dp3104
g3
S'1486884336'
p3105
sg5
g3103
sg6
g435
sg8
VMegan Underwood
p3106
sg10
g11
ssS'3c37814c-1f8b-4ede-879c-706f06f5d203'
p3107
(dp3108
g3
S'1486913698'
p3109
sg5
g3107
sg6
g165
sg8
VMichelle Anderson
p3110
sg10
g11
ssS'8c6d3e17-eb76-43cd-a32e-5db0eee78388'
p3111
(dp3112
g3
S'1486903107'
p3113
sg5
g3111
sg6
g55
sg8
S'Tyler Ball and Hayden'
p3114
sg10
g51
ssS'1b89996d-fa80-4eb5-9704-2cb682d7cc83'
p3115
(dp3116
g3
S'1486878987'
p3117
sg5
g3115
sg6
g229
sg8
VAmanda Cole
p3118
sg10
g11
ssS'c9353b6d-b2bc-456b-9685-ac4a26c206e3'
p3119
(dp3120
g3
S'1486916957'
p3121
sg5
g3119
sg6
g513
sg8
VSean Rogers
p3122
sg10
g11
ssS'7fdf3605-6a73-4886-ab39-a522798d9408'
p3123
(dp3124
g3
S'1486918805'
p3125
sg5
g3123
sg6
g152
sg8
VStephen Deleon
p3126
sg10
g11
ssS'a0a6d478-e1a1-4444-8406-2c3f384f4f05'
p3127
(dp3128
g3
S'1486871892'
p3129
sg5
g3127
sg6
g90
sg8
VMary White
p3130
sg10
g11
ssS'319cea42-b266-48dc-974d-fe3be691a134'
p3131
(dp3132
g3
S'1486910148'
p3133
sg5
g3131
sg6
g25
sg8
VCheryl Riley
p3134
sg10
g11
ssS'5df68203-8553-4fa0-b458-09d942570827'
p3135
(dp3136
g3
S'1486928053'
p3137
sg5
g3135
sg6
g25
sg8
VAdam Mejia
p3138
sg10
g11
ssS'df0048c4-cf62-4a1b-be0d-63077241f5f2'
p3139
(dp3140
g3
S'1486938301'
p3141
sg5
g3139
sg6
g104
sg8
VMichael Keith
p3142
sg10
g11
ssS'f5850806-0a66-48a1-9280-9afd157dfca5'
p3143
(dp3144
g3
S'1486941231'
p3145
sg5
g3143
sg6
g25
sg8
VDiane Miller
p3146
sg10
g11
ssS'5148c8a1-87cf-46fd-9cde-c67f8daf0f84'
p3147
(dp3148
g3
S'1486885126'
p3149
sg5
g3147
sg6
g60
sg8
VJames Miller
p3150
sg10
g11
ssS'f5632b15-e74a-43f3-bf06-992ec10eb9e5'
p3151
(dp3152
g3
S'1486883543'
p3153
sg5
g3151
sg6
g35
sg8
VJames Hartman
p3154
sg10
g11
ssS'c6c68931-354a-43d3-87a6-7938d0b92326'
p3155
(dp3156
g3
S'1486923770'
p3157
sg5
g3155
sg6
g513
sg8
VRichard Ramirez
p3158
sg10
g11
ssS'18dc9c31-39e9-4680-84a4-85a6c969d713'
p3159
(dp3160
g3
S'1486882837'
p3161
sg5
g3159
sg6
g749
sg8
VJessica Castro
p3162
sg10
g11
ssS'ba50ca5a-25ed-4a05-ad49-dda05e566f33'
p3163
(dp3164
g3
S'1486924389'
p3165
sg5
g3163
sg6
g744
sg8
VDaniel Barnes
p3166
sg10
g11
ssS'28531689-b0ef-42f7-9b67-53154bd916ce'
p3167
(dp3168
g3
S'1486905299'
p3169
sg5
g3167
sg6
g104
sg8
VKaren Day
p3170
sg10
g11
ssS'0e60ea9f-257e-4483-90be-403847562a60'
p3171
(dp3172
g3
S'1486924457'
p3173
sg5
g3171
sg6
g404
sg8
S'Hall Group'
p3174
sg10
g51
ssS'f5c67d92-3160-427e-8460-d123c2873ef2'
p3175
(dp3176
g3
S'1486865938'
p3177
sg5
g3175
sg6
g530
sg8
VEdwin Hurst
p3178
sg10
g11
ssS'9c098245-0b22-4d02-8613-95fbd8d0ccf5'
p3179
(dp3180
g3
S'1486923894'
p3181
sg5
g3179
sg6
g70
sg8
VKaren Morgan
p3182
sg10
g11
ssS'ef0d84d1-689d-4e7c-b894-a87b3e1974a7'
p3183
(dp3184
g3
S'1486900688'
p3185
sg5
g3183
sg6
g239
sg8
VDustin Gonzalez
p3186
sg10
g11
ssS'084397a3-9f3e-4dd3-9315-0827a943565b'
p3187
(dp3188
g3
S'1486932772'
p3189
sg5
g3187
sg6
g349
sg8
VShelly Smith
p3190
sg10
g11
ssS'e75de9f6-4226-4160-bd9e-51bfafab9ab8'
p3191
(dp3192
g3
S'1486887422'
p3193
sg5
g3191
sg6
g327
sg8
VJulian Davis
p3194
sg10
g11
ssS'99fe2347-ab88-4fa7-891d-cfb792e2b179'
p3195
(dp3196
g3
S'1486868639'
p3197
sg5
g3195
sg6
g349
sg8
VKimberly Grimes
p3198
sg10
g11
ssS'e4e21238-3a23-4e9c-986a-cd0e1268cb67'
p3199
(dp3200
g3
S'1486859471'
p3201
sg5
g3199
sg6
g749
sg8
VAllen Kelly
p3202
sg10
g11
ssS'e629d696-8cd7-4edf-a1c6-2297fcb45022'
p3203
(dp3204
g3
S'1486864265'
p3205
sg5
g3203
sg6
g40
sg8
VMichael Robinson
p3206
sg10
g11
ssS'd0aa34e6-ad54-4543-b7b8-51e9b8d81e21'
p3207
(dp3208
g3
S'1486915099'
p3209
sg5
g3207
sg6
g55
sg8
S'Collier Rivera and Gates'
p3210
sg10
g51
ssS'b23124f6-79ac-4568-a02b-192beb870030'
p3211
(dp3212
g3
S'1486908204'
p3213
sg5
g3211
sg6
g404
sg8
VGabriel Reynolds
p3214
sg10
g11
ssS'7f4a527c-e3d8-49fa-b6f1-e14891a32473'
p3215
(dp3216
g3
S'1486903686'
p3217
sg5
g3215
sg6
g7
sg8
VCrystal Roberts
p3218
sg10
g11
ssS'a2644414-8455-4050-841e-06ba17683095'
p3219
(dp3220
g3
S'1486881250'
p3221
sg5
g3219
sg6
g117
sg8
VAlec Love
p3222
sg10
g11
ssS'bd75fc9f-9832-4d50-80c8-906bf05c6841'
p3223
(dp3224
g3
S'1486871924'
p3225
sg5
g3223
sg6
g366
sg8
VCarla Nelson
p3226
sg10
g11
ssS'fc812a0d-da15-48a1-8eb7-3ef4b74de764'
p3227
(dp3228
g3
S'1486921556'
p3229
sg5
g3227
sg6
g366
sg8
VCourtney Mason
p3230
sg10
g11
ssS'b59783f5-cb2b-454f-8c37-463e6a930150'
p3231
(dp3232
g3
S'1486884863'
p3233
sg5
g3231
sg6
g186
sg8
VJoseph Griffin MD
p3234
sg10
g11
ssS'9e1675bf-8dc5-4729-8c74-5c0771476803'
p3235
(dp3236
g3
S'1486940348'
p3237
sg5
g3235
sg6
g239
sg8
VMrs. Ashley Taylor
p3238
sg10
g11
ssS'0e6021e1-03d7-4ceb-9105-8cb3b6182c65'
p3239
(dp3240
g3
S'1486882971'
p3241
sg5
g3239
sg6
g135
sg8
VChristopher Anderson
p3242
sg10
g11
ssS'b28eb343-593b-4eed-814f-3051c8460c42'
p3243
(dp3244
g3
S'1486906995'
p3245
sg5
g3243
sg6
g278
sg8
S'Smith Tran and Hernandez'
p3246
sg10
g51
ssS'0fe6e02d-6f0e-4b1d-923f-84f1b1a349b6'
p3247
(dp3248
g3
S'1486883417'
p3249
sg5
g3247
sg6
g85
sg8
VAmanda Costa
p3250
sg10
g11
ssS'a299d6e9-872f-4b5a-b73a-9ecbb1cc1cfe'
p3251
(dp3252
g3
S'1486927346'
p3253
sg5
g3251
sg6
g379
sg8
VMichelle Adams
p3254
sg10
g11
ssS'6a3c3890-8653-44ba-bbee-bc5319c89b39'
p3255
(dp3256
g3
S'1486939394'
p3257
sg5
g3255
sg6
g744
sg8
VJeremy Santos
p3258
sg10
g11
ssS'98e54ffd-5f36-4126-94ec-c3d7501d166e'
p3259
(dp3260
g3
S'1486904651'
p3261
sg5
g3259
sg6
g90
sg8
VRuben Cervantes
p3262
sg10
g11
ssS'0a285939-4c33-4057-ad7a-c21bfb9e4d57'
p3263
(dp3264
g3
S'1486858678'
p3265
sg5
g3263
sg6
g104
sg8
VJames Brewer
p3266
sg10
g11
ssS'02a79041-26d5-47bf-bb68-2e466d1ea062'
p3267
(dp3268
g3
S'1486900025'
p3269
sg5
g3267
sg6
g25
sg8
VMichael Shannon
p3270
sg10
g11
ssS'617b6534-c6b7-4cdb-83ee-148303a56d0a'
p3271
(dp3272
g3
S'1486934725'
p3273
sg5
g3271
sg6
g186
sg8
VBrandi Mendoza
p3274
sg10
g11
ssS'000959ac-107b-4d30-b526-fda8876d008e'
p3275
(dp3276
g3
S'1486919444'
p3277
sg5
g3275
sg6
g55
sg8
VRyan Horn
p3278
sg10
g11
ssS'e26142bc-3eab-4d8c-95f6-a3224a0e5a1a'
p3279
(dp3280
g3
S'1486943069'
p3281
sg5
g3279
sg6
g296
sg8
VMr. Daniel Jackson
p3282
sg10
g11
ssS'68dec528-22c5-473b-a732-20473afdff76'
p3283
(dp3284
g3
S'1486910883'
p3285
sg5
g3283
sg6
g191
sg8
VAnthony Sanders
p3286
sg10
g11
ssS'230c2d2e-3ccf-404e-9b4f-691c36b5df0d'
p3287
(dp3288
g3
S'1486935109'
p3289
sg5
g3287
sg6
g208
sg8
VJoseph Rodriguez
p3290
sg10
g11
ssS'52541f2a-56d1-45e2-946d-03b3f3a111f1'
p3291
(dp3292
g3
S'1486876862'
p3293
sg5
g3291
sg6
g186
sg8
VCrystal Franklin
p3294
sg10
g11
ssS'9ee68b1f-f40a-4ece-9850-44d17b4f35f5'
p3295
(dp3296
g3
S'1486924891'
p3297
sg5
g3295
sg6
g296
sg8
VAnnette Hubbard
p3298
sg10
g11
ssS'89eee70e-1c94-48a4-a96b-658f0b153b9f'
p3299
(dp3300
g3
S'1486867863'
p3301
sg5
g3299
sg6
g287
sg8
VSydney Patrick
p3302
sg10
g11
ssS'75230a14-939b-4728-86fa-1d87aa49bbc8'
p3303
(dp3304
g3
S'1486928927'
p3305
sg5
g3303
sg6
g191
sg8
VCathy Chapman
p3306
sg10
g11
ssS'93ec7501-93b1-4677-8cd6-2e7cbad73afa'
p3307
(dp3308
g3
S'1486940295'
p3309
sg5
g3307
sg6
g60
sg8
VBenjamin Martinez
p3310
sg10
g11
ssS'cdda84a7-8c83-4d27-9ead-60bfb39ade35'
p3311
(dp3312
g3
S'1486887782'
p3313
sg5
g3311
sg6
g496
sg8
VChristopher Valenzuela
p3314
sg10
g11
ssS'5e41a2bf-540a-421f-9403-9616c530beae'
p3315
(dp3316
g3
S'1486928256'
p3317
sg5
g3315
sg6
g208
sg8
VGary Tyler
p3318
sg10
g11
ssS'0f9d95ef-2541-4f88-b2e7-703051adf744'
p3319
(dp3320
g3
S'1486924210'
p3321
sg5
g3319
sg6
g366
sg8
VJennifer Shepherd
p3322
sg10
g11
ssS'2eb9ccea-30f0-4565-9a60-1af56734db12'
p3323
(dp3324
g3
S'1486876778'
p3325
sg5
g3323
sg6
g229
sg8
VMark Hull
p3326
sg10
g11
ssS'9b634acc-2449-46fd-9218-3f8791c2c0cd'
p3327
(dp3328
g3
S'1486902072'
p3329
sg5
g3327
sg6
g85
sg8
VJose Smith
p3330
sg10
g11
ssS'a39b6321-3aa9-4dec-ab78-896c326baf89'
p3331
(dp3332
g3
S'1486914223'
p3333
sg5
g3331
sg6
g496
sg8
VCarrie Nelson
p3334
sg10
g11
ssS'7d395879-57c6-437c-b6cd-d639e6b7e937'
p3335
(dp3336
g3
S'1486895917'
p3337
sg5
g3335
sg6
g35
sg8
VRussell Johnson
p3338
sg10
g11
ssS'36499ac5-8334-4c0c-b1bb-e9964ab4564d'
p3339
(dp3340
g3
S'1486872477'
p3341
sg5
g3339
sg6
g99
sg8
VAlexis Hopkins
p3342
sg10
g11
ssS'd445ab14-0862-40b4-93ed-2ba5f03c8ddb'
p3343
(dp3344
g3
S'1486932718'
p3345
sg5
g3343
sg6
g327
sg8
VJoshua Cantu
p3346
sg10
g11
ssS'93d3b0a7-fa08-4c1f-9013-2894fdcce181'
p3347
(dp3348
g3
S'1486863436'
p3349
sg5
g3347
sg6
g379
sg8
VRichard Townsend
p3350
sg10
g11
ssS'a4b2a654-d12d-4ea3-9995-1ed057e96b2f'
p3351
(dp3352
g3
S'1486932693'
p3353
sg5
g3351
sg6
g234
sg8
VCrystal Martinez
p3354
sg10
g11
ssS'58c48f51-7f1e-45c9-87ff-1abb475a5fb7'
p3355
(dp3356
g3
S'1486938335'
p3357
sg5
g3355
sg6
g379
sg8
VEdward Nguyen
p3358
sg10
g11
ssS'65725749-f9e5-4c55-b852-05e21e6dccef'
p3359
(dp3360
g3
S'1486892642'
p3361
sg5
g3359
sg6
g90
sg8
VHeather Hall
p3362
sg10
g11
ssS'893a09f1-f0cd-489c-9cad-2bd4a11726d7'
p3363
(dp3364
g3
S'1486903509'
p3365
sg5
g3363
sg6
g40
sg8
VMegan Rivas
p3366
sg10
g11
ssS'3d2d5da0-8d96-4c9b-9ada-80a7e86bc507'
p3367
(dp3368
g3
S'1486879760'
p3369
sg5
g3367
sg6
g208
sg8
VPeter Mcclain
p3370
sg10
g11
ssS'6aace00c-6540-4d89-8c5b-6229419cf673'
p3371
(dp3372
g3
S'1486935149'
p3373
sg5
g3371
sg6
g530
sg8
S'Patton PLC'
p3374
sg10
g51
ssS'3350788a-78b8-4d5c-ba82-3b85288f0e99'
p3375
(dp3376
g3
S'1486930095'
p3377
sg5
g3375
sg6
g135
sg8
VStephen Wood
p3378
sg10
g11
ssS'fef76584-7131-457b-b1d5-09e558ea7d27'
p3379
(dp3380
g3
S'1486917853'
p3381
sg5
g3379
sg6
g85
sg8
VLisa Brown
p3382
sg10
g11
ssS'bf494b77-e3b2-4392-a878-2e0f3c55fedf'
p3383
(dp3384
g3
S'1486915097'
p3385
sg5
g3383
sg6
g135
sg8
VAnthony Moore
p3386
sg10
g11
ssS'cecbf134-cfcf-421e-a427-d3cb452a01b9'
p3387
(dp3388
g3
S'1486860376'
p3389
sg5
g3387
sg6
g49
sg8
VMary Lyons
p3390
sg10
g11
ssS'0a0503ff-2307-4498-a940-9cb750a5a9de'
p3391
(dp3392
g3
S'1486877337'
p3393
sg5
g3391
sg6
g234
sg8
VJames Johnson
p3394
sg10
g11
ssS'b36c032a-bd1c-4613-9bed-1522813b654a'
p3395
(dp3396
g3
S'1486909740'
p3397
sg5
g3395
sg6
g25
sg8
S'Allen Gilbert and Gaines'
p3398
sg10
g51
ssS'3912788f-b948-45a0-a4ef-e488320058a6'
p3399
(dp3400
g3
S'1486878521'
p3401
sg5
g3399
sg6
g208
sg8
VStephen Patel
p3402
sg10
g11
ssS'6f635f33-9596-46ff-a681-d18ad2e7e406'
p3403
(dp3404
g3
S'1486864207'
p3405
sg5
g3403
sg6
g744
sg8
VAngela Levine
p3406
sg10
g11
ssS'd7d61326-5c9e-40d7-9962-912f33bc0f9b'
p3407
(dp3408
g3
S'1486898290'
p3409
sg5
g3407
sg6
g55
sg8
VPatrick Liu
p3410
sg10
g11
ssS'7454ecd9-12ab-4af8-be25-ff5105ef33b9'
p3411
(dp3412
g3
S'1486937943'
p3413
sg5
g3411
sg6
g55
sg8
VCourtney Soto
p3414
sg10
g11
ssS'39d6a37a-3230-4ed1-be73-d329e012592a'
p3415
(dp3416
g3
S'1486941742'
p3417
sg5
g3415
sg6
g409
sg8
VJohn Gallegos
p3418
sg10
g11
ssS'd13f3cf5-408d-4442-b7b0-15c748b0c88d'
p3419
(dp3420
g3
S'1486866380'
p3421
sg5
g3419
sg6
g208
sg8
VKristin Hernandez
p3422
sg10
g11
ssS'3c57a2c4-7492-4053-bdf0-973fb81ed364'
p3423
(dp3424
g3
S'1486866562'
p3425
sg5
g3423
sg6
g379
sg8
VMiranda Cooper
p3426
sg10
g11
ssS'f90edb79-d8e8-485b-8c83-f59818489953'
p3427
(dp3428
g3
S'1486862799'
p3429
sg5
g3427
sg6
g314
sg8
S'Randall-Cortez'
p3430
sg10
g51
ssS'4b3306e2-0d44-4090-a37a-fb02da6f3b05'
p3431
(dp3432
g3
S'1486873758'
p3433
sg5
g3431
sg6
g435
sg8
VLori Webb
p3434
sg10
g11
ssS'edadd7ae-096b-4559-a60b-a6cc3fa5a8b3'
p3435
(dp3436
g3
S'1486895952'
p3437
sg5
g3435
sg6
g165
sg8
VJacob Smith
p3438
sg10
g11
ssS'ec2cce2a-e7a1-475d-a699-b8698bd16ea7'
p3439
(dp3440
g3
S'1486890341'
p3441
sg5
g3439
sg6
g80
sg8
VAngela Lawson
p3442
sg10
g11
ssS'1e0be421-d5d0-44a4-b08a-6c307d63e66e'
p3443
(dp3444
g3
S'1486926306'
p3445
sg5
g3443
sg6
g409
sg8
VKathy Eaton
p3446
sg10
g11
ssS'87b43aeb-491c-4b6d-a2c5-49d7632f29eb'
p3447
(dp3448
g3
S'1486898469'
p3449
sg5
g3447
sg6
g244
sg8
VThomas Jackson
p3450
sg10
g11
ssS'ee6c897f-ba55-4e24-8d08-bbb113d4e28a'
p3451
(dp3452
g3
S'1486932242'
p3453
sg5
g3451
sg6
g7
sg8
VStephen Forbes
p3454
sg10
g11
ssS'a7716d66-1018-4312-a97c-98551d60c0e1'
p3455
(dp3456
g3
S'1486898341'
p3457
sg5
g3455
sg6
g75
sg8
VJoseph Manning
p3458
sg10
g11
ssS'3554a8a0-706a-44a6-9a80-ca8b0756d1c6'
p3459
(dp3460
g3
S'1486935077'
p3461
sg5
g3459
sg6
g530
sg8
VNatalie Meyer
p3462
sg10
g11
ssS'95cacd49-1b6a-450d-965d-45ce7bd69f5e'
p3463
(dp3464
g3
S'1486931821'
p3465
sg5
g3463
sg6
g530
sg8
S'Mora Malone and Johnson'
p3466
sg10
g51
ssS'29795231-54e3-42b2-8c99-af7fd4cb3452'
p3467
(dp3468
g3
S'1486897644'
p3469
sg5
g3467
sg6
g191
sg8
VRebecca Cunningham
p3470
sg10
g11
ssS'22c9aec7-98c8-4f7a-b71e-b2ea8a651918'
p3471
(dp3472
g3
S'1486914131'
p3473
sg5
g3471
sg6
g75
sg8
VAnthony Jackson
p3474
sg10
g11
ssS'f891fda4-a45f-4e57-abcc-6d3ca361de22'
p3475
(dp3476
g3
S'1486926081'
p3477
sg5
g3475
sg6
g15
sg8
VMaurice Young
p3478
sg10
g11
ssS'246eafb2-3012-42c1-ae0a-d5d6fc3cb820'
p3479
(dp3480
g3
S'1486873321'
p3481
sg5
g3479
sg6
g104
sg8
VChad Macdonald
p3482
sg10
g11
ssS'5bfb6b84-3fb6-4527-be07-9b5a844e7b87'
p3483
(dp3484
g3
S'1486902756'
p3485
sg5
g3483
sg6
g749
sg8
VJonathan Ayala
p3486
sg10
g11
ssS'b48bcf97-99f1-4aef-9eef-4eb542ae6362'
p3487
(dp3488
g3
S'1486927752'
p3489
sg5
g3487
sg6
g404
sg8
VRenee Collins
p3490
sg10
g11
ssS'8f7d2954-70d6-4d5c-9010-18fe6f05ca8f'
p3491
(dp3492
g3
S'1486934385'
p3493
sg5
g3491
sg6
g744
sg8
VCourtney Jones
p3494
sg10
g11
ssS'48282eeb-abf6-4661-ac95-6cdb0d2ad13b'
p3495
(dp3496
g3
S'1486908720'
p3497
sg5
g3495
sg6
g278
sg8
VCourtney Miller
p3498
sg10
g11
ssS'837cfdf6-f7aa-4af0-b740-f3e41cdfaa2a'
p3499
(dp3500
g3
S'1486901011'
p3501
sg5
g3499
sg6
g234
sg8
VCatherine Anderson
p3502
sg10
g11
ssS'2651cf27-27be-48cd-8466-2ea8d110d315'
p3503
(dp3504
g3
S'1486864128'
p3505
sg5
g3503
sg6
g404
sg8
VCody Powers
p3506
sg10
g11
ssS'333334ec-a141-4195-a3c8-5f79a0299044'
p3507
(dp3508
g3
S'1486866441'
p3509
sg5
g3507
sg6
g130
sg8
VSean Patton
p3510
sg10
g11
ssS'f6643b50-c0a2-41a7-81dc-5cd3bb6d9a30'
p3511
(dp3512
g3
S'1486885468'
p3513
sg5
g3511
sg6
g344
sg8
VNathan Griffin
p3514
sg10
g11
ssS'ed0f6c32-bdc9-42be-a3bc-e3971307704a'
p3515
(dp3516
g3
S'1486929505'
p3517
sg5
g3515
sg6
g244
sg8
VDavid Ibarra DVM
p3518
sg10
g11
ssS'c14d3234-3984-4fdd-8cfb-0c61f531479f'
p3519
(dp3520
g3
S'1486903464'
p3521
sg5
g3519
sg6
g234
sg8
VDaniel Johnston
p3522
sg10
g11
ssS'3d3748c7-ac74-4c34-a856-d5fb721b25cd'
p3523
(dp3524
g3
S'1486944623'
p3525
sg5
g3523
sg6
g135
sg8
VSarah Hart
p3526
sg10
g11
ssS'c9fdb3af-afb4-4660-8b18-4cfd50f74c04'
p3527
(dp3528
g3
S'1486936125'
p3529
sg5
g3527
sg6
g60
sg8
VVeronica Williams
p3530
sg10
g11
ssS'edfa6469-0e5c-4ba7-8431-6747b77e6512'
p3531
(dp3532
g3
S'1486942771'
p3533
sg5
g3531
sg6
g165
sg8
VDr. Marc Hoover
p3534
sg10
g11
ssS'698706fb-a8f9-469d-8685-1925d182d507'
p3535
(dp3536
g3
S'1486889640'
p3537
sg5
g3535
sg6
g90
sg8
VPamela Avila
p3538
sg10
g11
ssS'a6bcbfe0-ea08-49c0-89da-88c1d350d031'
p3539
(dp3540
g3
S'1486937882'
p3541
sg5
g3539
sg6
g435
sg8
VRoy Byrd
p3542
sg10
g11
ssS'5aa323ea-490f-4950-bfd6-bf3e9ccc81e1'
p3543
(dp3544
g3
S'1486924123'
p3545
sg5
g3543
sg6
g65
sg8
VJoyce Walsh
p3546
sg10
g11
ssS'd2ff952e-df4c-44d2-8113-ef2a813c5bd6'
p3547
(dp3548
g3
S'1486931908'
p3549
sg5
g3547
sg6
g130
sg8
VDale Woodward
p3550
sg10
g11
ssS'24fd2c7d-9fa9-4580-a948-f6cb9619dcd1'
p3551
(dp3552
g3
S'1486884706'
p3553
sg5
g3551
sg6
g513
sg8
VJasmin Bentley
p3554
sg10
g11
ssS'b479225c-9a40-444a-9a30-ec52f624bc40'
p3555
(dp3556
g3
S'1486944740'
p3557
sg5
g3555
sg6
g344
sg8
VJames Frey
p3558
sg10
g11
ssS'e825de36-9ab9-4657-adc2-9843856229e5'
p3559
(dp3560
g3
S'1486938662'
p3561
sg5
g3559
sg6
g40
sg8
VRobert Sandoval
p3562
sg10
g11
ssS'de8cbf9b-0dc2-440d-91bf-5f5046728ddc'
p3563
(dp3564
g3
S'1486894046'
p3565
sg5
g3563
sg6
g165
sg8
VBecky Jones
p3566
sg10
g11
ssS'81116313-d1f7-4294-9d4c-1309169dc1b7'
p3567
(dp3568
g3
S'1486941863'
p3569
sg5
g3567
sg6
g513
sg8
VBrooke Hernandez
p3570
sg10
g11
ssS'b936d311-3fb2-482a-8327-b6515b1bfb97'
p3571
(dp3572
g3
S'1486886704'
p3573
sg5
g3571
sg6
g99
sg8
VChristina Rios
p3574
sg10
g11
ssS'4b9a188c-1c93-4297-a283-c2fc0119debc'
p3575
(dp3576
g3
S'1486943986'
p3577
sg5
g3575
sg6
g130
sg8
VJames Bryan
p3578
sg10
g11
ssS'29f6fe27-525b-46ca-9912-6a03b90806c0'
p3579
(dp3580
g3
S'1486896782'
p3581
sg5
g3579
sg6
g496
sg8
VBarbara Dean
p3582
sg10
g11
ssS'14f6c2f2-94c5-4a3a-8b14-ea2251e57090'
p3583
(dp3584
g3
S'1486916073'
p3585
sg5
g3583
sg6
g287
sg8
S'Malone-Mitchell'
p3586
sg10
g51
ssS'48889f93-8fb0-44d6-b8ac-7b900a56153c'
p3587
(dp3588
g3
S'1486886512'
p3589
sg5
g3587
sg6
g430
sg8
VKenneth Reynolds
p3590
sg10
g11
ssS'32f26f34-b9c0-4ed7-9118-7e6955ca013f'
p3591
(dp3592
g3
S'1486933507'
p3593
sg5
g3591
sg6
g287
sg8
VTeresa Boyd
p3594
sg10
g11
ssS'5dd83f11-3dc4-4edc-a09b-0dc2e7303676'
p3595
(dp3596
g3
S'1486920453'
p3597
sg5
g3595
sg6
g208
sg8
VGregory Roberts
p3598
sg10
g11
ssS'dcc05020-5048-4bf0-9381-bc9deed9517a'
p3599
(dp3600
g3
S'1486929151'
p3601
sg5
g3599
sg6
g208
sg8
VScott Ford
p3602
sg10
g11
ssS'83ba304d-f213-49c3-9a10-f6bf4e8a693d'
p3603
(dp3604
g3
S'1486903752'
p3605
sg5
g3603
sg6
g135
sg8
VThomas Lewis
p3606
sg10
g11
ssS'83b0e060-d659-4c93-bcb4-bfdd7993397f'
p3607
(dp3608
g3
S'1486867970'
p3609
sg5
g3607
sg6
g90
sg8
VCasey Robinson
p3610
sg10
g11
ssS'3c417750-6f81-493e-a2c7-35491321b9a7'
p3611
(dp3612
g3
S'1486937644'
p3613
sg5
g3611
sg6
g404
sg8
VSarah Mcneil
p3614
sg10
g11
ssS'be0c5dbf-35ff-4fb3-a062-163f852f6b7a'
p3615
(dp3616
g3
S'1486919882'
p3617
sg5
g3615
sg6
g513
sg8
VDavid Johnson
p3618
sg10
g11
ssS'8686604e-db56-4772-9909-80a6aad61a8c'
p3619
(dp3620
g3
S'1486890808'
p3621
sg5
g3619
sg6
g35
sg8
VCrystal Smith
p3622
sg10
g11
ssS'3c20105c-512f-4ab4-8f07-ad12dd7f859f'
p3623
(dp3624
g3
S'1486925379'
p3625
sg5
g3623
sg6
g244
sg8
VTimothy Alvarez
p3626
sg10
g11
ssS'900b4357-9493-4af6-9fa9-fcbea4825632'
p3627
(dp3628
g3
S'1486923790'
p3629
sg5
g3627
sg6
g65
sg8
VDana Cortez
p3630
sg10
g11
ssS'c272d744-c30a-4996-be8d-b20f584c2155'
p3631
(dp3632
g3
S'1486934185'
p3633
sg5
g3631
sg6
g249
sg8
VCarlos Reed
p3634
sg10
g11
ssS'b93896e6-4025-427e-9706-177388921f44'
p3635
(dp3636
g3
S'1486900584'
p3637
sg5
g3635
sg6
g15
sg8
VJames Dominguez
p3638
sg10
g11
ssS'b2a51b1d-548c-4ccd-a7b0-52617ce204fe'
p3639
(dp3640
g3
S'1486873116'
p3641
sg5
g3639
sg6
g191
sg8
VShane Cook
p3642
sg10
g11
ssS'2364e49b-c97b-43d1-b70e-d987e4848352'
p3643
(dp3644
g3
S'1486864798'
p3645
sg5
g3643
sg6
g65
sg8
VTracie Schroeder
p3646
sg10
g11
ssS'2291d13f-7a71-4ed0-9392-8e3f791a3012'
p3647
(dp3648
g3
S'1486874081'
p3649
sg5
g3647
sg6
g278
sg8
VDanielle Griffin
p3650
sg10
g11
ssS'eef6a2b8-26ef-42bb-b05e-baea94c7dcc5'
p3651
(dp3652
g3
S'1486869877'
p3653
sg5
g3651
sg6
g305
sg8
VJessica Francis
p3654
sg10
g11
ssS'19a67b3d-c2d1-4b30-aa17-e182cae56f39'
p3655
(dp3656
g3
S'1486939790'
p3657
sg5
g3655
sg6
g366
sg8
VHenry Holmes
p3658
sg10
g11
ssS'24b58793-8aed-4c0a-964c-e3c305dacb48'
p3659
(dp3660
g3
S'1486917618'
p3661
sg5
g3659
sg6
g229
sg8
VMiguel Barrett
p3662
sg10
g11
ssS'408851d8-870b-46e5-9101-e81d40562e96'
p3663
(dp3664
g3
S'1486874858'
p3665
sg5
g3663
sg6
g60
sg8
VKarla Gray PhD
p3666
sg10
g11
ssS'bdf74c2c-20bc-4d71-8392-ad96b21e82ac'
p3667
(dp3668
g3
S'1486859370'
p3669
sg5
g3667
sg6
g135
sg8
VDonna Johnson
p3670
sg10
g11
ssS'9738ebbe-8817-4ffd-830c-3ef13f9825e5'
p3671
(dp3672
g3
S'1486862389'
p3673
sg5
g3671
sg6
g496
sg8
VChristopher Mann
p3674
sg10
g11
ssS'0c396cf0-0487-49ba-9188-b009f8fb3294'
p3675
(dp3676
g3
S'1486868614'
p3677
sg5
g3675
sg6
g7
sg8
VKrista Wheeler
p3678
sg10
g11
ssS'2e5d8571-2087-43eb-823f-eccffcaa98f3'
p3679
(dp3680
g3
S'1486870385'
p3681
sg5
g3679
sg6
g135
sg8
VRobert Jones
p3682
sg10
g11
ssS'724a5621-5ce7-4d5e-8783-e461f8047dad'
p3683
(dp3684
g3
S'1486891780'
p3685
sg5
g3683
sg6
g366
sg8
VMark Lewis
p3686
sg10
g11
ssS'3cbab357-4d3a-470d-b42f-343aeac30209'
p3687
(dp3688
g3
S'1486868815'
p3689
sg5
g3687
sg6
g85
sg8
VJustin Oliver
p3690
sg10
g11
ssS'3b95a307-522c-4eab-a1f1-7693e06e9500'
p3691
(dp3692
g3
S'1486931471'
p3693
sg5
g3691
sg6
g30
sg8
VJason Boyd
p3694
sg10
g11
ssS'5cf00dcf-5674-4df7-86e9-8bfc4d58dc6e'
p3695
(dp3696
g3
S'1486879037'
p3697
sg5
g3695
sg6
g130
sg8
VShannon Sullivan
p3698
sg10
g11
ssS'926eedd8-d0e3-4b97-b119-f82ae496a983'
p3699
(dp3700
g3
S'1486931123'
p3701
sg5
g3699
sg6
g611
sg8
VKathy Garcia
p3702
sg10
g11
ssS'283103dc-229b-494e-bff3-1e71e3f6e362'
p3703
(dp3704
g3
S'1486861037'
p3705
sg5
g3703
sg6
g379
sg8
VJohnathan Rodriguez
p3706
sg10
g11
ssS'5c3308de-8a16-49c1-818f-614731dd8126'
p3707
(dp3708
g3
S'1486891050'
p3709
sg5
g3707
sg6
g327
sg8
S'Moody Graves and Brown'
p3710
sg10
g51
ssS'd5577ab9-4531-448d-a320-d133f18ef73d'
p3711
(dp3712
g3
S'1486916634'
p3713
sg5
g3711
sg6
g60
sg8
VPeter Curry
p3714
sg10
g11
ssS'a0b54a06-006b-49b3-81b8-b569d067b71b'
p3715
(dp3716
g3
S'1486929725'
p3717
sg5
g3715
sg6
g104
sg8
VChristina Dodson
p3718
sg10
g11
ssS'f4350c7f-65cf-4864-9eb7-2e14d83f3af0'
p3719
(dp3720
g3
S'1486883158'
p3721
sg5
g3719
sg6
g104
sg8
VMckenzie Lee
p3722
sg10
g11
ssS'51e7c49f-8664-41eb-b5df-5f34bae84402'
p3723
(dp3724
g3
S'1486940971'
p3725
sg5
g3723
sg6
g130
sg8
VFrank Young
p3726
sg10
g11
ssS'c01a472a-d663-4d52-b520-ead43d713de1'
p3727
(dp3728
g3
S'1486940475'
p3729
sg5
g3727
sg6
g99
sg8
VKathy Collins
p3730
sg10
g11
ssS'001763bb-415b-46bd-af50-29a89a0e22d2'
p3731
(dp3732
g3
S'1486894223'
p3733
sg5
g3731
sg6
g80
sg8
VWilliam Pittman
p3734
sg10
g11
ssS'b82c2f37-d633-46bb-bf0b-3520f1aada0c'
p3735
(dp3736
g3
S'1486870537'
p3737
sg5
g3735
sg6
g75
sg8
VLuis Thomas
p3738
sg10
g11
ssS'9f36091c-a978-4c11-a3d0-2b41447786ce'
p3739
(dp3740
g3
S'1486886527'
p3741
sg5
g3739
sg6
g244
sg8
VLisa Solis
p3742
sg10
g11
ssS'5c9f5a80-8a24-45f2-a173-ddb3f8830642'
p3743
(dp3744
g3
S'1486861794'
p3745
sg5
g3743
sg6
g327
sg8
VLaura Campbell
p3746
sg10
g11
ssS'7501ca14-b280-4b5f-ad5d-22387e974c37'
p3747
(dp3748
g3
S'1486917333'
p3749
sg5
g3747
sg6
g65
sg8
VSarah Gilmore
p3750
sg10
g11
ssS'f02454ee-1a5e-486b-8179-c17d7272bf78'
p3751
(dp3752
g3
S'1486912510'
p3753
sg5
g3751
sg6
g117
sg8
VJulie Pitts
p3754
sg10
g11
ssS'90f508d4-f170-4c6d-a24e-b3b164d11647'
p3755
(dp3756
g3
S'1486929245'
p3757
sg5
g3755
sg6
g208
sg8
VCassandra Wood
p3758
sg10
g11
ssS'3d9d4f50-3a00-4da0-809b-82c3740c39ff'
p3759
(dp3760
g3
S'1486892185'
p3761
sg5
g3759
sg6
g55
sg8
VBrittany Roberts
p3762
sg10
g11
ssS'47767339-b01e-4fd9-9a96-8357b072d4aa'
p3763
(dp3764
g3
S'1486899408'
p3765
sg5
g3763
sg6
g327
sg8
VMichael Jones
p3766
sg10
g11
ssS'30398cdf-8ecc-4508-bb46-c13027c259d5'
p3767
(dp3768
g3
S'1486918799'
p3769
sg5
g3767
sg6
g135
sg8
VCourtney Black
p3770
sg10
g11
ssS'9bd24deb-5ef1-4f77-a6a7-73447ab690c0'
p3771
(dp3772
g3
S'1486941078'
p3773
sg5
g3771
sg6
g7
sg8
S'Thomas LLC'
p3774
sg10
g51
ssS'bdb0bb5d-6cd6-4dce-a31b-dc7559e98053'
p3775
(dp3776
g3
S'1486893522'
p3777
sg5
g3775
sg6
g99
sg8
VDr. John Bush
p3778
sg10
g11
ssS'0c3cbb6a-1016-40c3-87b0-76a1e37ce975'
p3779
(dp3780
g3
S'1486914994'
p3781
sg5
g3779
sg6
g379
sg8
VMolly Ford
p3782
sg10
g11
ssS'be7ec382-7f3a-476b-bb8e-eba585f69078'
p3783
(dp3784
g3
S'1486933339'
p3785
sg5
g3783
sg6
g409
sg8
S'Rivers-Cruz'
p3786
sg10
g51
ssS'4ee01a37-0b4a-49f5-832b-1c3942482b55'
p3787
(dp3788
g3
S'1486922449'
p3789
sg5
g3787
sg6
g20
sg8
VJeffrey Moore
p3790
sg10
g11
ssS'36436ea6-d1a5-4ea7-8d6a-7c44ffb76ffc'
p3791
(dp3792
g3
S'1486880997'
p3793
sg5
g3791
sg6
g234
sg8
VJames Price
p3794
sg10
g11
ssS'76dd925e-1f53-4410-a87e-5dc0a37e16ce'
p3795
(dp3796
g3
S'1486874762'
p3797
sg5
g3795
sg6
g49
sg8
VChristina Castaneda
p3798
sg10
g11
ssS'ba042ec7-33b7-4bd8-950b-675e1bfe40e9'
p3799
(dp3800
g3
S'1486909606'
p3801
sg5
g3799
sg6
g344
sg8
S'Brown-Smith'
p3802
sg10
g51
ssS'6942acbd-275c-4c49-83c4-f8e5f5a502ec'
p3803
(dp3804
g3
S'1486944450'
p3805
sg5
g3803
sg6
g40
sg8
VRyan Barber
p3806
sg10
g11
ssS'f92b9b01-0d8f-4e0d-8c55-dbf1c6c2f9f6'
p3807
(dp3808
g3
S'1486894460'
p3809
sg5
g3807
sg6
g278
sg8
VDr. Joseph Rivera
p3810
sg10
g11
ssS'46c87bd1-ec71-483d-b56e-9cb2fbea8373'
p3811
(dp3812
g3
S'1486932841'
p3813
sg5
g3811
sg6
g530
sg8
S'Hill-Hays'
p3814
sg10
g51
ssS'b0d57182-5c90-49fd-97c5-703273ffd2dd'
p3815
(dp3816
g3
S'1486936363'
p3817
sg5
g3815
sg6
g60
sg8
VHeidi Wood
p3818
sg10
g11
ssS'c078332c-8297-4fdf-94e2-9258aa7c96aa'
p3819
(dp3820
g3
S'1486883095'
p3821
sg5
g3819
sg6
g366
sg8
VDavid Barton
p3822
sg10
g11
ssS'f0a05121-f7a9-4742-90b6-fcfa38099b7d'
p3823
(dp3824
g3
S'1486889898'
p3825
sg5
g3823
sg6
g430
sg8
VJoseph Bowman
p3826
sg10
g11
ssS'b3e73af8-81d0-4c3f-8429-65b8e1aed3c7'
p3827
(dp3828
g3
S'1486918909'
p3829
sg5
g3827
sg6
g379
sg8
VChad Mason
p3830
sg10
g11
ssS'8bf84dc3-64ec-4e01-8f2d-497abd69e0f9'
p3831
(dp3832
g3
S'1486943688'
p3833
sg5
g3831
sg6
g430
sg8
VJeffery Taylor
p3834
sg10
g11
ssS'43f71bb1-3c48-4e00-9bf0-c5e3c70af673'
p3835
(dp3836
g3
S'1486925005'
p3837
sg5
g3835
sg6
g404
sg8
VKatherine Chapman
p3838
sg10
g11
ssS'4397cad9-b74f-4210-99e3-92d85b79c1dd'
p3839
(dp3840
g3
S'1486860050'
p3841
sg5
g3839
sg6
g234
sg8
VWilliam Edwards
p3842
sg10
g11
ssS'efff7369-49ef-4a50-b474-051ac01c9b52'
p3843
(dp3844
g3
S'1486884405'
p3845
sg5
g3843
sg6
g80
sg8
VJoseph Johnson
p3846
sg10
g11
ssS'e2b97eda-586e-4738-9191-5180766a17c0'
p3847
(dp3848
g3
S'1486862934'
p3849
sg5
g3847
sg6
g104
sg8
VCesar Harris Jr.
p3850
sg10
g11
ssS'ba2b3854-369c-45ce-9ccb-54bd5b60e5d4'
p3851
(dp3852
g3
S'1486870948'
p3853
sg5
g3851
sg6
g349
sg8
VCynthia Thomas
p3854
sg10
g11
ssS'ba43a8bf-0e85-4ceb-81e3-6b593a10d459'
p3855
(dp3856
g3
S'1486897061'
p3857
sg5
g3855
sg6
g366
sg8
VKatelyn Fisher
p3858
sg10
g11
ssS'33dd2ab5-8db3-4536-95d6-66a430426249'
p3859
(dp3860
g3
S'1486890368'
p3861
sg5
g3859
sg6
g234
sg8
VNatalie Mora
p3862
sg10
g11
ssS'abfee830-4bf4-4f90-9854-9f5ffc440192'
p3863
(dp3864
g3
S'1486883117'
p3865
sg5
g3863
sg6
g25
sg8
VMichael Duffy
p3866
sg10
g11
ssS'e6d8b94c-0234-40cb-8c14-10aed1b508ce'
p3867
(dp3868
g3
S'1486942853'
p3869
sg5
g3867
sg6
g229
sg8
VTiffany Sanchez
p3870
sg10
g11
ssS'06c0d897-364b-4f77-b9f3-3205463f291f'
p3871
(dp3872
g3
S'1486943198'
p3873
sg5
g3871
sg6
g379
sg8
VMolly Hayes
p3874
sg10
g11
ssS'c337a63a-3126-435c-87d0-c5526990e5fe'
p3875
(dp3876
g3
S'1486869549'
p3877
sg5
g3875
sg6
g165
sg8
VJoshua Moore
p3878
sg10
g11
ssS'64e16105-9a0b-4c7d-9142-3f262d8703ca'
p3879
(dp3880
g3
S'1486884772'
p3881
sg5
g3879
sg6
g314
sg8
VSamuel Davis
p3882
sg10
g11
ssS'30ba133c-872d-41fa-ab4f-823e1bbf6de2'
p3883
(dp3884
g3
S'1486877589'
p3885
sg5
g3883
sg6
g60
sg8
S'Marshall Williams and Scott'
p3886
sg10
g51
ssS'ecc16ba8-cef5-49fa-b09f-a4dce922dd05'
p3887
(dp3888
g3
S'1486874738'
p3889
sg5
g3887
sg6
g99
sg8
VJenny Hernandez
p3890
sg10
g11
ssS'f4ee2280-c23b-47b2-a95e-3e81da13233f'
p3891
(dp3892
g3
S'1486881890'
p3893
sg5
g3891
sg6
g744
sg8
VPaula Allen
p3894
sg10
g11
ssS'dccbd251-061c-4635-8f70-0857361f1321'
p3895
(dp3896
g3
S'1486860042'
p3897
sg5
g3895
sg6
g404
sg8
VMatthew English
p3898
sg10
g11
ssS'3e586adc-fa67-483d-be5c-f9ffb9fae798'
p3899
(dp3900
g3
S'1486936642'
p3901
sg5
g3899
sg6
g278
sg8
VRobert Silva
p3902
sg10
g11
ssS'c8614b17-814d-4943-b7c4-2658f34747ac'
p3903
(dp3904
g3
S'1486867815'
p3905
sg5
g3903
sg6
g379
sg8
VBruce Bryant
p3906
sg10
g11
ssS'27d9fa95-85f6-4f64-a97e-fb142211b31f'
p3907
(dp3908
g3
S'1486894855'
p3909
sg5
g3907
sg6
g244
sg8
VAngela Mendoza
p3910
sg10
g11
ssS'92836e89-9c76-4fd2-877b-8d8b8e1f8e7c'
p3911
(dp3912
g3
S'1486938102'
p3913
sg5
g3911
sg6
g530
sg8
VMatthew Christensen
p3914
sg10
g11
ssS'bf46cf39-a8c0-42ff-b664-d5448e783fa9'
p3915
(dp3916
g3
S'1486904565'
p3917
sg5
g3915
sg6
g530
sg8
VCourtney Anderson
p3918
sg10
g11
ssS'378c6cc1-1515-4d80-8321-600e7f4bcd63'
p3919
(dp3920
g3
S'1486925245'
p3921
sg5
g3919
sg6
g65
sg8
VJasmine Diaz
p3922
sg10
g11
ssS'7adc4e3c-e365-4c4a-8054-d20c7918e906'
p3923
(dp3924
g3
S'1486937805'
p3925
sg5
g3923
sg6
g349
sg8
VJames Hernandez
p3926
sg10
g11
ssS'00da7b35-e6e8-4c21-9853-282d92dde323'
p3927
(dp3928
g3
S'1486938820'
p3929
sg5
g3927
sg6
g15
sg8
VKristina Ramos
p3930
sg10
g11
ssS'f1b9791b-b6a0-4b97-8d87-f9fd1e48154f'
p3931
(dp3932
g3
S'1486889242'
p3933
sg5
g3931
sg6
g244
sg8
S'Terrell and Sons'
p3934
sg10
g51
ssS'57ce8056-40de-46c0-aee4-edd43be550ea'
p3935
(dp3936
g3
S'1486935553'
p3937
sg5
g3935
sg6
g165
sg8
VPaul Scott
p3938
sg10
g11
ssS'f535ece3-c458-478c-a660-040116a9f318'
p3939
(dp3940
g3
S'1486938679'
p3941
sg5
g3939
sg6
g75
sg8
VDaniel Wright
p3942
sg10
g11
ssS'46361e9c-dc5d-4db3-820f-71cc4a860cd1'
p3943
(dp3944
g3
S'1486902666'
p3945
sg5
g3943
sg6
g7
sg8
VRichard Meyers
p3946
sg10
g11
ssS'29b1d5cb-5e2d-47d2-9d2f-4bd644127fa1'
p3947
(dp3948
g3
S'1486870817'
p3949
sg5
g3947
sg6
g130
sg8
VRichard Avery
p3950
sg10
g11
ssS'72ba9e88-7742-4597-9091-4d2613141cdc'
p3951
(dp3952
g3
S'1486878979'
p3953
sg5
g3951
sg6
g287
sg8
VBrian Cole
p3954
sg10
g11
ssS'dd530f13-cd14-4539-9226-e8526077c9a1'
p3955
(dp3956
g3
S'1486918241'
p3957
sg5
g3955
sg6
g60
sg8
S'Evans Moore and Zamora'
p3958
sg10
g51
ssS'a865fdef-eabe-489f-a0b3-5595bef321bc'
p3959
(dp3960
g3
S'1486860409'
p3961
sg5
g3959
sg6
g152
sg8
VJohn Martinez
p3962
sg10
g11
ssS'7da3083c-9116-4323-9aa0-fca0860af698'
p3963
(dp3964
g3
S'1486875941'
p3965
sg5
g3963
sg6
g496
sg8
VKatherine Smith
p3966
sg10
g11
ssS'ad584f19-956a-449a-86b8-beb74cbb7484'
p3967
(dp3968
g3
S'1486890173'
p3969
sg5
g3967
sg6
g60
sg8
VKenneth Bryant
p3970
sg10
g11
ssS'72b85fd6-5d09-4228-883b-9d7e452d1e2e'
p3971
(dp3972
g3
S'1486925801'
p3973
sg5
g3971
sg6
g55
sg8
VStephen Castillo
p3974
sg10
g11
ssS'94e36f91-66ac-4447-a6ab-f5ebf564771b'
p3975
(dp3976
g3
S'1486895668'
p3977
sg5
g3975
sg6
g20
sg8
VAshley French
p3978
sg10
g11
ssS'7d83ec4e-9cf1-4bb4-b1a4-1f97e902c0d5'
p3979
(dp3980
g3
S'1486923480'
p3981
sg5
g3979
sg6
g379
sg8
VJames Sutton
p3982
sg10
g11
ssS'fe135318-3dc9-4767-915a-f2702ad029af'
p3983
(dp3984
g3
S'1486941552'
p3985
sg5
g3983
sg6
g35
sg8
VAlexis Owens
p3986
sg10
g11
ssS'69f59857-54fb-45bc-89be-b8866f02c39a'
p3987
(dp3988
g3
S'1486863325'
p3989
sg5
g3987
sg6
g85
sg8
VJeffrey Dunn
p3990
sg10
g11
ssS'c40bcf02-8af5-4a11-a961-d2af511840eb'
p3991
(dp3992
g3
S'1486889207'
p3993
sg5
g3991
sg6
g25
sg8
VLisa Stein
p3994
sg10
g11
ssS'1f38cd42-14ee-4eeb-9aa7-a30705c603c5'
p3995
(dp3996
g3
S'1486898793'
p3997
sg5
g3995
sg6
g305
sg8
VPatricia Smith
p3998
sg10
g11
ssS'3547af96-98cf-43c3-8ecc-42238e021424'
p3999
(dp4000
g3
S'1486909796'
p4001
sg5
g3999
sg6
g305
sg8
VSteven Stafford
p4002
sg10
g11
ssS'6c5f988f-4743-4f87-9288-99b217a4fb31'
p4003
(dp4004
g3
S'1486905610'
p4005
sg5
g4003
sg6
g239
sg8
VAndrew Gonzalez
p4006
sg10
g11
ssS'c92ef978-f88f-4733-87b2-eaf4fd791c0e'
p4007
(dp4008
g3
S'1486899904'
p4009
sg5
g4007
sg6
g65
sg8
VJustin Wagner
p4010
sg10
g11
ssS'e58b83de-44f8-4b6a-a2db-c73b2f3bd9ce'
p4011
(dp4012
g3
S'1486880305'
p4013
sg5
g4011
sg6
g117
sg8
VJessica Long
p4014
sg10
g11
ssS'5eda9e9b-506f-410f-89fd-39d733a31be8'
p4015
(dp4016
g3
S'1486939833'
p4017
sg5
g4015
sg6
g749
sg8
VNicole Fernandez
p4018
sg10
g11
ssS'75af2b11-3e10-41a7-9776-4ae39202fc41'
p4019
(dp4020
g3
S'1486874663'
p4021
sg5
g4019
sg6
g191
sg8
VFelicia Benton
p4022
sg10
g11
ssS'4e508f36-46b3-430a-83a9-cc4373854e0f'
p4023
(dp4024
g3
S'1486871463'
p4025
sg5
g4023
sg6
g344
sg8
VRuth Adams
p4026
sg10
g11
ssS'dc078815-f780-4783-8919-410a3c04634d'
p4027
(dp4028
g3
S'1486870968'
p4029
sg5
g4027
sg6
g744
sg8
VJacob Harrison
p4030
sg10
g11
ssS'7dd2bcfa-0d26-4a23-ac5a-03ef4005852c'
p4031
(dp4032
g3
S'1486904597'
p4033
sg5
g4031
sg6
g30
sg8
VClinton Sosa
p4034
sg10
g11
ssS'39c8bd41-d28f-4c2a-95c3-ce63024652a6'
p4035
(dp4036
g3
S'1486881214'
p4037
sg5
g4035
sg6
g366
sg8
VErin Salas
p4038
sg10
g11
ssS'75486ace-f482-48f9-9e27-200bc118d569'
p4039
(dp4040
g3
S'1486873489'
p4041
sg5
g4039
sg6
g296
sg8
VLinda Martin
p4042
sg10
g11
ssS'f88c1496-5c34-4c28-8ac2-97ca338a273a'
p4043
(dp4044
g3
S'1486886980'
p4045
sg5
g4043
sg6
g314
sg8
VJulie Wright
p4046
sg10
g11
ssS'94fb3a24-3e61-4cdf-a995-eebcbab12583'
p4047
(dp4048
g3
S'1486940689'
p4049
sg5
g4047
sg6
g349
sg8
VJoshua Davis
p4050
sg10
g11
ssS'aadf8499-ec10-45c7-9c4e-0eec9082e025'
p4051
(dp4052
g3
S'1486902971'
p4053
sg5
g4051
sg6
g208
sg8
VWilliam Watkins
p4054
sg10
g11
ssS'c6523398-8628-4203-9979-9e22062eb443'
p4055
(dp4056
g3
S'1486866503'
p4057
sg5
g4055
sg6
g344
sg8
VLuis Wilson
p4058
sg10
g11
ss.